
STM32G030F6P6TR.elf:     file format elf32-littlearm

Sections:
Idx Name          Size      VMA       LMA       File off  Algn
  0 .isr_vector   000000b8  08000000  08000000  00001000  2**0
                  CONTENTS, ALLOC, LOAD, READONLY, DATA
  1 .text         00004370  080000b8  080000b8  000010b8  2**2
                  CONTENTS, ALLOC, LOAD, READONLY, CODE
  2 .rodata       000000e0  08004428  08004428  00005428  2**2
                  CONTENTS, ALLOC, LOAD, READONLY, DATA
  3 .ARM.extab    00000000  08004508  08004508  0000605c  2**0
                  CONTENTS
  4 .ARM          00000000  08004508  08004508  0000605c  2**0
                  CONTENTS
  5 .preinit_array 00000000  08004508  08004508  0000605c  2**0
                  CONTENTS, ALLOC, LOAD, DATA
  6 .init_array   00000004  08004508  08004508  00005508  2**2
                  CONTENTS, ALLOC, LOAD, DATA
  7 .fini_array   00000004  0800450c  0800450c  0000550c  2**2
                  CONTENTS, ALLOC, LOAD, DATA
  8 .data         0000005c  20000000  08004510  00006000  2**2
                  CONTENTS, ALLOC, LOAD, DATA
  9 .bss          00000224  2000005c  0800456c  0000605c  2**2
                  ALLOC
 10 ._user_heap_stack 00000600  20000280  0800456c  00006280  2**0
                  ALLOC
 11 .ARM.attributes 00000028  00000000  00000000  0000605c  2**0
                  CONTENTS, READONLY
 12 .comment      00000043  00000000  00000000  00006084  2**0
                  CONTENTS, READONLY
 13 .debug_frame  0000058c  00000000  00000000  000060c8  2**2
                  CONTENTS, READONLY, DEBUGGING, OCTETS

Disassembly of section .text:

080000b8 <__do_global_dtors_aux>:
 80000b8:	b510      	push	{r4, lr}
 80000ba:	4c06      	ldr	r4, [pc, #24]	@ (80000d4 <__do_global_dtors_aux+0x1c>)
 80000bc:	7823      	ldrb	r3, [r4, #0]
 80000be:	2b00      	cmp	r3, #0
 80000c0:	d107      	bne.n	80000d2 <__do_global_dtors_aux+0x1a>
 80000c2:	4b05      	ldr	r3, [pc, #20]	@ (80000d8 <__do_global_dtors_aux+0x20>)
 80000c4:	2b00      	cmp	r3, #0
 80000c6:	d002      	beq.n	80000ce <__do_global_dtors_aux+0x16>
 80000c8:	4804      	ldr	r0, [pc, #16]	@ (80000dc <__do_global_dtors_aux+0x24>)
 80000ca:	e000      	b.n	80000ce <__do_global_dtors_aux+0x16>
 80000cc:	bf00      	nop
 80000ce:	2301      	movs	r3, #1
 80000d0:	7023      	strb	r3, [r4, #0]
 80000d2:	bd10      	pop	{r4, pc}
 80000d4:	2000005c 	.word	0x2000005c
 80000d8:	00000000 	.word	0x00000000
 80000dc:	08004410 	.word	0x08004410

080000e0 <frame_dummy>:
 80000e0:	4b04      	ldr	r3, [pc, #16]	@ (80000f4 <frame_dummy+0x14>)
 80000e2:	b510      	push	{r4, lr}
 80000e4:	2b00      	cmp	r3, #0
 80000e6:	d003      	beq.n	80000f0 <frame_dummy+0x10>
 80000e8:	4903      	ldr	r1, [pc, #12]	@ (80000f8 <frame_dummy+0x18>)
 80000ea:	4804      	ldr	r0, [pc, #16]	@ (80000fc <frame_dummy+0x1c>)
 80000ec:	e000      	b.n	80000f0 <frame_dummy+0x10>
 80000ee:	bf00      	nop
 80000f0:	bd10      	pop	{r4, pc}
 80000f2:	46c0      	nop			@ (mov r8, r8)
 80000f4:	00000000 	.word	0x00000000
 80000f8:	20000060 	.word	0x20000060
 80000fc:	08004410 	.word	0x08004410

08000100 <__gnu_thumb1_case_uqi>:
 8000100:	b402      	push	{r1}
 8000102:	4671      	mov	r1, lr
 8000104:	0849      	lsrs	r1, r1, #1
 8000106:	0049      	lsls	r1, r1, #1
 8000108:	5c09      	ldrb	r1, [r1, r0]
 800010a:	0049      	lsls	r1, r1, #1
 800010c:	448e      	add	lr, r1
 800010e:	bc02      	pop	{r1}
 8000110:	4770      	bx	lr
 8000112:	46c0      	nop			@ (mov r8, r8)

08000114 <__udivsi3>:
 8000114:	2200      	movs	r2, #0
 8000116:	0843      	lsrs	r3, r0, #1
 8000118:	428b      	cmp	r3, r1
 800011a:	d374      	bcc.n	8000206 <__udivsi3+0xf2>
 800011c:	0903      	lsrs	r3, r0, #4
 800011e:	428b      	cmp	r3, r1
 8000120:	d35f      	bcc.n	80001e2 <__udivsi3+0xce>
 8000122:	0a03      	lsrs	r3, r0, #8
 8000124:	428b      	cmp	r3, r1
 8000126:	d344      	bcc.n	80001b2 <__udivsi3+0x9e>
 8000128:	0b03      	lsrs	r3, r0, #12
 800012a:	428b      	cmp	r3, r1
 800012c:	d328      	bcc.n	8000180 <__udivsi3+0x6c>
 800012e:	0c03      	lsrs	r3, r0, #16
 8000130:	428b      	cmp	r3, r1
 8000132:	d30d      	bcc.n	8000150 <__udivsi3+0x3c>
 8000134:	22ff      	movs	r2, #255	@ 0xff
 8000136:	0209      	lsls	r1, r1, #8
 8000138:	ba12      	rev	r2, r2
 800013a:	0c03      	lsrs	r3, r0, #16
 800013c:	428b      	cmp	r3, r1
 800013e:	d302      	bcc.n	8000146 <__udivsi3+0x32>
 8000140:	1212      	asrs	r2, r2, #8
 8000142:	0209      	lsls	r1, r1, #8
 8000144:	d065      	beq.n	8000212 <__udivsi3+0xfe>
 8000146:	0b03      	lsrs	r3, r0, #12
 8000148:	428b      	cmp	r3, r1
 800014a:	d319      	bcc.n	8000180 <__udivsi3+0x6c>
 800014c:	e000      	b.n	8000150 <__udivsi3+0x3c>
 800014e:	0a09      	lsrs	r1, r1, #8
 8000150:	0bc3      	lsrs	r3, r0, #15
 8000152:	428b      	cmp	r3, r1
 8000154:	d301      	bcc.n	800015a <__udivsi3+0x46>
 8000156:	03cb      	lsls	r3, r1, #15
 8000158:	1ac0      	subs	r0, r0, r3
 800015a:	4152      	adcs	r2, r2
 800015c:	0b83      	lsrs	r3, r0, #14
 800015e:	428b      	cmp	r3, r1
 8000160:	d301      	bcc.n	8000166 <__udivsi3+0x52>
 8000162:	038b      	lsls	r3, r1, #14
 8000164:	1ac0      	subs	r0, r0, r3
 8000166:	4152      	adcs	r2, r2
 8000168:	0b43      	lsrs	r3, r0, #13
 800016a:	428b      	cmp	r3, r1
 800016c:	d301      	bcc.n	8000172 <__udivsi3+0x5e>
 800016e:	034b      	lsls	r3, r1, #13
 8000170:	1ac0      	subs	r0, r0, r3
 8000172:	4152      	adcs	r2, r2
 8000174:	0b03      	lsrs	r3, r0, #12
 8000176:	428b      	cmp	r3, r1
 8000178:	d301      	bcc.n	800017e <__udivsi3+0x6a>
 800017a:	030b      	lsls	r3, r1, #12
 800017c:	1ac0      	subs	r0, r0, r3
 800017e:	4152      	adcs	r2, r2
 8000180:	0ac3      	lsrs	r3, r0, #11
 8000182:	428b      	cmp	r3, r1
 8000184:	d301      	bcc.n	800018a <__udivsi3+0x76>
 8000186:	02cb      	lsls	r3, r1, #11
 8000188:	1ac0      	subs	r0, r0, r3
 800018a:	4152      	adcs	r2, r2
 800018c:	0a83      	lsrs	r3, r0, #10
 800018e:	428b      	cmp	r3, r1
 8000190:	d301      	bcc.n	8000196 <__udivsi3+0x82>
 8000192:	028b      	lsls	r3, r1, #10
 8000194:	1ac0      	subs	r0, r0, r3
 8000196:	4152      	adcs	r2, r2
 8000198:	0a43      	lsrs	r3, r0, #9
 800019a:	428b      	cmp	r3, r1
 800019c:	d301      	bcc.n	80001a2 <__udivsi3+0x8e>
 800019e:	024b      	lsls	r3, r1, #9
 80001a0:	1ac0      	subs	r0, r0, r3
 80001a2:	4152      	adcs	r2, r2
 80001a4:	0a03      	lsrs	r3, r0, #8
 80001a6:	428b      	cmp	r3, r1
 80001a8:	d301      	bcc.n	80001ae <__udivsi3+0x9a>
 80001aa:	020b      	lsls	r3, r1, #8
 80001ac:	1ac0      	subs	r0, r0, r3
 80001ae:	4152      	adcs	r2, r2
 80001b0:	d2cd      	bcs.n	800014e <__udivsi3+0x3a>
 80001b2:	09c3      	lsrs	r3, r0, #7
 80001b4:	428b      	cmp	r3, r1
 80001b6:	d301      	bcc.n	80001bc <__udivsi3+0xa8>
 80001b8:	01cb      	lsls	r3, r1, #7
 80001ba:	1ac0      	subs	r0, r0, r3
 80001bc:	4152      	adcs	r2, r2
 80001be:	0983      	lsrs	r3, r0, #6
 80001c0:	428b      	cmp	r3, r1
 80001c2:	d301      	bcc.n	80001c8 <__udivsi3+0xb4>
 80001c4:	018b      	lsls	r3, r1, #6
 80001c6:	1ac0      	subs	r0, r0, r3
 80001c8:	4152      	adcs	r2, r2
 80001ca:	0943      	lsrs	r3, r0, #5
 80001cc:	428b      	cmp	r3, r1
 80001ce:	d301      	bcc.n	80001d4 <__udivsi3+0xc0>
 80001d0:	014b      	lsls	r3, r1, #5
 80001d2:	1ac0      	subs	r0, r0, r3
 80001d4:	4152      	adcs	r2, r2
 80001d6:	0903      	lsrs	r3, r0, #4
 80001d8:	428b      	cmp	r3, r1
 80001da:	d301      	bcc.n	80001e0 <__udivsi3+0xcc>
 80001dc:	010b      	lsls	r3, r1, #4
 80001de:	1ac0      	subs	r0, r0, r3
 80001e0:	4152      	adcs	r2, r2
 80001e2:	08c3      	lsrs	r3, r0, #3
 80001e4:	428b      	cmp	r3, r1
 80001e6:	d301      	bcc.n	80001ec <__udivsi3+0xd8>
 80001e8:	00cb      	lsls	r3, r1, #3
 80001ea:	1ac0      	subs	r0, r0, r3
 80001ec:	4152      	adcs	r2, r2
 80001ee:	0883      	lsrs	r3, r0, #2
 80001f0:	428b      	cmp	r3, r1
 80001f2:	d301      	bcc.n	80001f8 <__udivsi3+0xe4>
 80001f4:	008b      	lsls	r3, r1, #2
 80001f6:	1ac0      	subs	r0, r0, r3
 80001f8:	4152      	adcs	r2, r2
 80001fa:	0843      	lsrs	r3, r0, #1
 80001fc:	428b      	cmp	r3, r1
 80001fe:	d301      	bcc.n	8000204 <__udivsi3+0xf0>
 8000200:	004b      	lsls	r3, r1, #1
 8000202:	1ac0      	subs	r0, r0, r3
 8000204:	4152      	adcs	r2, r2
 8000206:	1a41      	subs	r1, r0, r1
 8000208:	d200      	bcs.n	800020c <__udivsi3+0xf8>
 800020a:	4601      	mov	r1, r0
 800020c:	4152      	adcs	r2, r2
 800020e:	4610      	mov	r0, r2
 8000210:	4770      	bx	lr
 8000212:	e7ff      	b.n	8000214 <__udivsi3+0x100>
 8000214:	b501      	push	{r0, lr}
 8000216:	2000      	movs	r0, #0
 8000218:	f000 f8f0 	bl	80003fc <__aeabi_idiv0>
 800021c:	bd02      	pop	{r1, pc}
 800021e:	46c0      	nop			@ (mov r8, r8)

08000220 <__aeabi_uidivmod>:
 8000220:	2900      	cmp	r1, #0
 8000222:	d0f7      	beq.n	8000214 <__udivsi3+0x100>
 8000224:	e776      	b.n	8000114 <__udivsi3>
 8000226:	4770      	bx	lr

08000228 <__divsi3>:
 8000228:	4603      	mov	r3, r0
 800022a:	430b      	orrs	r3, r1
 800022c:	d47f      	bmi.n	800032e <__divsi3+0x106>
 800022e:	2200      	movs	r2, #0
 8000230:	0843      	lsrs	r3, r0, #1
 8000232:	428b      	cmp	r3, r1
 8000234:	d374      	bcc.n	8000320 <__divsi3+0xf8>
 8000236:	0903      	lsrs	r3, r0, #4
 8000238:	428b      	cmp	r3, r1
 800023a:	d35f      	bcc.n	80002fc <__divsi3+0xd4>
 800023c:	0a03      	lsrs	r3, r0, #8
 800023e:	428b      	cmp	r3, r1
 8000240:	d344      	bcc.n	80002cc <__divsi3+0xa4>
 8000242:	0b03      	lsrs	r3, r0, #12
 8000244:	428b      	cmp	r3, r1
 8000246:	d328      	bcc.n	800029a <__divsi3+0x72>
 8000248:	0c03      	lsrs	r3, r0, #16
 800024a:	428b      	cmp	r3, r1
 800024c:	d30d      	bcc.n	800026a <__divsi3+0x42>
 800024e:	22ff      	movs	r2, #255	@ 0xff
 8000250:	0209      	lsls	r1, r1, #8
 8000252:	ba12      	rev	r2, r2
 8000254:	0c03      	lsrs	r3, r0, #16
 8000256:	428b      	cmp	r3, r1
 8000258:	d302      	bcc.n	8000260 <__divsi3+0x38>
 800025a:	1212      	asrs	r2, r2, #8
 800025c:	0209      	lsls	r1, r1, #8
 800025e:	d065      	beq.n	800032c <__divsi3+0x104>
 8000260:	0b03      	lsrs	r3, r0, #12
 8000262:	428b      	cmp	r3, r1
 8000264:	d319      	bcc.n	800029a <__divsi3+0x72>
 8000266:	e000      	b.n	800026a <__divsi3+0x42>
 8000268:	0a09      	lsrs	r1, r1, #8
 800026a:	0bc3      	lsrs	r3, r0, #15
 800026c:	428b      	cmp	r3, r1
 800026e:	d301      	bcc.n	8000274 <__divsi3+0x4c>
 8000270:	03cb      	lsls	r3, r1, #15
 8000272:	1ac0      	subs	r0, r0, r3
 8000274:	4152      	adcs	r2, r2
 8000276:	0b83      	lsrs	r3, r0, #14
 8000278:	428b      	cmp	r3, r1
 800027a:	d301      	bcc.n	8000280 <__divsi3+0x58>
 800027c:	038b      	lsls	r3, r1, #14
 800027e:	1ac0      	subs	r0, r0, r3
 8000280:	4152      	adcs	r2, r2
 8000282:	0b43      	lsrs	r3, r0, #13
 8000284:	428b      	cmp	r3, r1
 8000286:	d301      	bcc.n	800028c <__divsi3+0x64>
 8000288:	034b      	lsls	r3, r1, #13
 800028a:	1ac0      	subs	r0, r0, r3
 800028c:	4152      	adcs	r2, r2
 800028e:	0b03      	lsrs	r3, r0, #12
 8000290:	428b      	cmp	r3, r1
 8000292:	d301      	bcc.n	8000298 <__divsi3+0x70>
 8000294:	030b      	lsls	r3, r1, #12
 8000296:	1ac0      	subs	r0, r0, r3
 8000298:	4152      	adcs	r2, r2
 800029a:	0ac3      	lsrs	r3, r0, #11
 800029c:	428b      	cmp	r3, r1
 800029e:	d301      	bcc.n	80002a4 <__divsi3+0x7c>
 80002a0:	02cb      	lsls	r3, r1, #11
 80002a2:	1ac0      	subs	r0, r0, r3
 80002a4:	4152      	adcs	r2, r2
 80002a6:	0a83      	lsrs	r3, r0, #10
 80002a8:	428b      	cmp	r3, r1
 80002aa:	d301      	bcc.n	80002b0 <__divsi3+0x88>
 80002ac:	028b      	lsls	r3, r1, #10
 80002ae:	1ac0      	subs	r0, r0, r3
 80002b0:	4152      	adcs	r2, r2
 80002b2:	0a43      	lsrs	r3, r0, #9
 80002b4:	428b      	cmp	r3, r1
 80002b6:	d301      	bcc.n	80002bc <__divsi3+0x94>
 80002b8:	024b      	lsls	r3, r1, #9
 80002ba:	1ac0      	subs	r0, r0, r3
 80002bc:	4152      	adcs	r2, r2
 80002be:	0a03      	lsrs	r3, r0, #8
 80002c0:	428b      	cmp	r3, r1
 80002c2:	d301      	bcc.n	80002c8 <__divsi3+0xa0>
 80002c4:	020b      	lsls	r3, r1, #8
 80002c6:	1ac0      	subs	r0, r0, r3
 80002c8:	4152      	adcs	r2, r2
 80002ca:	d2cd      	bcs.n	8000268 <__divsi3+0x40>
 80002cc:	09c3      	lsrs	r3, r0, #7
 80002ce:	428b      	cmp	r3, r1
 80002d0:	d301      	bcc.n	80002d6 <__divsi3+0xae>
 80002d2:	01cb      	lsls	r3, r1, #7
 80002d4:	1ac0      	subs	r0, r0, r3
 80002d6:	4152      	adcs	r2, r2
 80002d8:	0983      	lsrs	r3, r0, #6
 80002da:	428b      	cmp	r3, r1
 80002dc:	d301      	bcc.n	80002e2 <__divsi3+0xba>
 80002de:	018b      	lsls	r3, r1, #6
 80002e0:	1ac0      	subs	r0, r0, r3
 80002e2:	4152      	adcs	r2, r2
 80002e4:	0943      	lsrs	r3, r0, #5
 80002e6:	428b      	cmp	r3, r1
 80002e8:	d301      	bcc.n	80002ee <__divsi3+0xc6>
 80002ea:	014b      	lsls	r3, r1, #5
 80002ec:	1ac0      	subs	r0, r0, r3
 80002ee:	4152      	adcs	r2, r2
 80002f0:	0903      	lsrs	r3, r0, #4
 80002f2:	428b      	cmp	r3, r1
 80002f4:	d301      	bcc.n	80002fa <__divsi3+0xd2>
 80002f6:	010b      	lsls	r3, r1, #4
 80002f8:	1ac0      	subs	r0, r0, r3
 80002fa:	4152      	adcs	r2, r2
 80002fc:	08c3      	lsrs	r3, r0, #3
 80002fe:	428b      	cmp	r3, r1
 8000300:	d301      	bcc.n	8000306 <__divsi3+0xde>
 8000302:	00cb      	lsls	r3, r1, #3
 8000304:	1ac0      	subs	r0, r0, r3
 8000306:	4152      	adcs	r2, r2
 8000308:	0883      	lsrs	r3, r0, #2
 800030a:	428b      	cmp	r3, r1
 800030c:	d301      	bcc.n	8000312 <__divsi3+0xea>
 800030e:	008b      	lsls	r3, r1, #2
 8000310:	1ac0      	subs	r0, r0, r3
 8000312:	4152      	adcs	r2, r2
 8000314:	0843      	lsrs	r3, r0, #1
 8000316:	428b      	cmp	r3, r1
 8000318:	d301      	bcc.n	800031e <__divsi3+0xf6>
 800031a:	004b      	lsls	r3, r1, #1
 800031c:	1ac0      	subs	r0, r0, r3
 800031e:	4152      	adcs	r2, r2
 8000320:	1a41      	subs	r1, r0, r1
 8000322:	d200      	bcs.n	8000326 <__divsi3+0xfe>
 8000324:	4601      	mov	r1, r0
 8000326:	4152      	adcs	r2, r2
 8000328:	4610      	mov	r0, r2
 800032a:	4770      	bx	lr
 800032c:	e05d      	b.n	80003ea <__divsi3+0x1c2>
 800032e:	0fca      	lsrs	r2, r1, #31
 8000330:	d000      	beq.n	8000334 <__divsi3+0x10c>
 8000332:	4249      	negs	r1, r1
 8000334:	1003      	asrs	r3, r0, #32
 8000336:	d300      	bcc.n	800033a <__divsi3+0x112>
 8000338:	4240      	negs	r0, r0
 800033a:	4053      	eors	r3, r2
 800033c:	2200      	movs	r2, #0
 800033e:	469c      	mov	ip, r3
 8000340:	0903      	lsrs	r3, r0, #4
 8000342:	428b      	cmp	r3, r1
 8000344:	d32d      	bcc.n	80003a2 <__divsi3+0x17a>
 8000346:	0a03      	lsrs	r3, r0, #8
 8000348:	428b      	cmp	r3, r1
 800034a:	d312      	bcc.n	8000372 <__divsi3+0x14a>
 800034c:	22fc      	movs	r2, #252	@ 0xfc
 800034e:	0189      	lsls	r1, r1, #6
 8000350:	ba12      	rev	r2, r2
 8000352:	0a03      	lsrs	r3, r0, #8
 8000354:	428b      	cmp	r3, r1
 8000356:	d30c      	bcc.n	8000372 <__divsi3+0x14a>
 8000358:	0189      	lsls	r1, r1, #6
 800035a:	1192      	asrs	r2, r2, #6
 800035c:	428b      	cmp	r3, r1
 800035e:	d308      	bcc.n	8000372 <__divsi3+0x14a>
 8000360:	0189      	lsls	r1, r1, #6
 8000362:	1192      	asrs	r2, r2, #6
 8000364:	428b      	cmp	r3, r1
 8000366:	d304      	bcc.n	8000372 <__divsi3+0x14a>
 8000368:	0189      	lsls	r1, r1, #6
 800036a:	d03a      	beq.n	80003e2 <__divsi3+0x1ba>
 800036c:	1192      	asrs	r2, r2, #6
 800036e:	e000      	b.n	8000372 <__divsi3+0x14a>
 8000370:	0989      	lsrs	r1, r1, #6
 8000372:	09c3      	lsrs	r3, r0, #7
 8000374:	428b      	cmp	r3, r1
 8000376:	d301      	bcc.n	800037c <__divsi3+0x154>
 8000378:	01cb      	lsls	r3, r1, #7
 800037a:	1ac0      	subs	r0, r0, r3
 800037c:	4152      	adcs	r2, r2
 800037e:	0983      	lsrs	r3, r0, #6
 8000380:	428b      	cmp	r3, r1
 8000382:	d301      	bcc.n	8000388 <__divsi3+0x160>
 8000384:	018b      	lsls	r3, r1, #6
 8000386:	1ac0      	subs	r0, r0, r3
 8000388:	4152      	adcs	r2, r2
 800038a:	0943      	lsrs	r3, r0, #5
 800038c:	428b      	cmp	r3, r1
 800038e:	d301      	bcc.n	8000394 <__divsi3+0x16c>
 8000390:	014b      	lsls	r3, r1, #5
 8000392:	1ac0      	subs	r0, r0, r3
 8000394:	4152      	adcs	r2, r2
 8000396:	0903      	lsrs	r3, r0, #4
 8000398:	428b      	cmp	r3, r1
 800039a:	d301      	bcc.n	80003a0 <__divsi3+0x178>
 800039c:	010b      	lsls	r3, r1, #4
 800039e:	1ac0      	subs	r0, r0, r3
 80003a0:	4152      	adcs	r2, r2
 80003a2:	08c3      	lsrs	r3, r0, #3
 80003a4:	428b      	cmp	r3, r1
 80003a6:	d301      	bcc.n	80003ac <__divsi3+0x184>
 80003a8:	00cb      	lsls	r3, r1, #3
 80003aa:	1ac0      	subs	r0, r0, r3
 80003ac:	4152      	adcs	r2, r2
 80003ae:	0883      	lsrs	r3, r0, #2
 80003b0:	428b      	cmp	r3, r1
 80003b2:	d301      	bcc.n	80003b8 <__divsi3+0x190>
 80003b4:	008b      	lsls	r3, r1, #2
 80003b6:	1ac0      	subs	r0, r0, r3
 80003b8:	4152      	adcs	r2, r2
 80003ba:	d2d9      	bcs.n	8000370 <__divsi3+0x148>
 80003bc:	0843      	lsrs	r3, r0, #1
 80003be:	428b      	cmp	r3, r1
 80003c0:	d301      	bcc.n	80003c6 <__divsi3+0x19e>
 80003c2:	004b      	lsls	r3, r1, #1
 80003c4:	1ac0      	subs	r0, r0, r3
 80003c6:	4152      	adcs	r2, r2
 80003c8:	1a41      	subs	r1, r0, r1
 80003ca:	d200      	bcs.n	80003ce <__divsi3+0x1a6>
 80003cc:	4601      	mov	r1, r0
 80003ce:	4663      	mov	r3, ip
 80003d0:	4152      	adcs	r2, r2
 80003d2:	105b      	asrs	r3, r3, #1
 80003d4:	4610      	mov	r0, r2
 80003d6:	d301      	bcc.n	80003dc <__divsi3+0x1b4>
 80003d8:	4240      	negs	r0, r0
 80003da:	2b00      	cmp	r3, #0
 80003dc:	d500      	bpl.n	80003e0 <__divsi3+0x1b8>
 80003de:	4249      	negs	r1, r1
 80003e0:	4770      	bx	lr
 80003e2:	4663      	mov	r3, ip
 80003e4:	105b      	asrs	r3, r3, #1
 80003e6:	d300      	bcc.n	80003ea <__divsi3+0x1c2>
 80003e8:	4240      	negs	r0, r0
 80003ea:	b501      	push	{r0, lr}
 80003ec:	2000      	movs	r0, #0
 80003ee:	f000 f805 	bl	80003fc <__aeabi_idiv0>
 80003f2:	bd02      	pop	{r1, pc}

080003f4 <__aeabi_idivmod>:
 80003f4:	2900      	cmp	r1, #0
 80003f6:	d0f8      	beq.n	80003ea <__divsi3+0x1c2>
 80003f8:	e716      	b.n	8000228 <__divsi3>
 80003fa:	4770      	bx	lr

080003fc <__aeabi_idiv0>:
 80003fc:	4770      	bx	lr
 80003fe:	46c0      	nop			@ (mov r8, r8)

08000400 <__aeabi_cfrcmple>:
 8000400:	4684      	mov	ip, r0
 8000402:	0008      	movs	r0, r1
 8000404:	4661      	mov	r1, ip
 8000406:	e7ff      	b.n	8000408 <__aeabi_cfcmpeq>

08000408 <__aeabi_cfcmpeq>:
 8000408:	b51f      	push	{r0, r1, r2, r3, r4, lr}
 800040a:	f000 fbd9 	bl	8000bc0 <__lesf2>
 800040e:	2800      	cmp	r0, #0
 8000410:	d401      	bmi.n	8000416 <__aeabi_cfcmpeq+0xe>
 8000412:	2100      	movs	r1, #0
 8000414:	42c8      	cmn	r0, r1
 8000416:	bd1f      	pop	{r0, r1, r2, r3, r4, pc}

08000418 <__aeabi_fcmpeq>:
 8000418:	b510      	push	{r4, lr}
 800041a:	f000 fb61 	bl	8000ae0 <__eqsf2>
 800041e:	4240      	negs	r0, r0
 8000420:	3001      	adds	r0, #1
 8000422:	bd10      	pop	{r4, pc}

08000424 <__aeabi_fcmplt>:
 8000424:	b510      	push	{r4, lr}
 8000426:	f000 fbcb 	bl	8000bc0 <__lesf2>
 800042a:	2800      	cmp	r0, #0
 800042c:	db01      	blt.n	8000432 <__aeabi_fcmplt+0xe>
 800042e:	2000      	movs	r0, #0
 8000430:	bd10      	pop	{r4, pc}
 8000432:	2001      	movs	r0, #1
 8000434:	bd10      	pop	{r4, pc}
 8000436:	46c0      	nop			@ (mov r8, r8)

08000438 <__aeabi_fcmple>:
 8000438:	b510      	push	{r4, lr}
 800043a:	f000 fbc1 	bl	8000bc0 <__lesf2>
 800043e:	2800      	cmp	r0, #0
 8000440:	dd01      	ble.n	8000446 <__aeabi_fcmple+0xe>
 8000442:	2000      	movs	r0, #0
 8000444:	bd10      	pop	{r4, pc}
 8000446:	2001      	movs	r0, #1
 8000448:	bd10      	pop	{r4, pc}
 800044a:	46c0      	nop			@ (mov r8, r8)

0800044c <__aeabi_fcmpgt>:
 800044c:	b510      	push	{r4, lr}
 800044e:	f000 fb6f 	bl	8000b30 <__gesf2>
 8000452:	2800      	cmp	r0, #0
 8000454:	dc01      	bgt.n	800045a <__aeabi_fcmpgt+0xe>
 8000456:	2000      	movs	r0, #0
 8000458:	bd10      	pop	{r4, pc}
 800045a:	2001      	movs	r0, #1
 800045c:	bd10      	pop	{r4, pc}
 800045e:	46c0      	nop			@ (mov r8, r8)

08000460 <__aeabi_fcmpge>:
 8000460:	b510      	push	{r4, lr}
 8000462:	f000 fb65 	bl	8000b30 <__gesf2>
 8000466:	2800      	cmp	r0, #0
 8000468:	da01      	bge.n	800046e <__aeabi_fcmpge+0xe>
 800046a:	2000      	movs	r0, #0
 800046c:	bd10      	pop	{r4, pc}
 800046e:	2001      	movs	r0, #1
 8000470:	bd10      	pop	{r4, pc}
 8000472:	46c0      	nop			@ (mov r8, r8)

08000474 <__aeabi_lmul>:
 8000474:	b5f0      	push	{r4, r5, r6, r7, lr}
 8000476:	46ce      	mov	lr, r9
 8000478:	4699      	mov	r9, r3
 800047a:	0c03      	lsrs	r3, r0, #16
 800047c:	469c      	mov	ip, r3
 800047e:	0413      	lsls	r3, r2, #16
 8000480:	4647      	mov	r7, r8
 8000482:	0c1b      	lsrs	r3, r3, #16
 8000484:	001d      	movs	r5, r3
 8000486:	000e      	movs	r6, r1
 8000488:	4661      	mov	r1, ip
 800048a:	0404      	lsls	r4, r0, #16
 800048c:	0c24      	lsrs	r4, r4, #16
 800048e:	b580      	push	{r7, lr}
 8000490:	0007      	movs	r7, r0
 8000492:	0c10      	lsrs	r0, r2, #16
 8000494:	434b      	muls	r3, r1
 8000496:	4365      	muls	r5, r4
 8000498:	4341      	muls	r1, r0
 800049a:	4360      	muls	r0, r4
 800049c:	0c2c      	lsrs	r4, r5, #16
 800049e:	18c0      	adds	r0, r0, r3
 80004a0:	1824      	adds	r4, r4, r0
 80004a2:	468c      	mov	ip, r1
 80004a4:	42a3      	cmp	r3, r4
 80004a6:	d903      	bls.n	80004b0 <__aeabi_lmul+0x3c>
 80004a8:	2380      	movs	r3, #128	@ 0x80
 80004aa:	025b      	lsls	r3, r3, #9
 80004ac:	4698      	mov	r8, r3
 80004ae:	44c4      	add	ip, r8
 80004b0:	4649      	mov	r1, r9
 80004b2:	4379      	muls	r1, r7
 80004b4:	4356      	muls	r6, r2
 80004b6:	0c23      	lsrs	r3, r4, #16
 80004b8:	042d      	lsls	r5, r5, #16
 80004ba:	0c2d      	lsrs	r5, r5, #16
 80004bc:	1989      	adds	r1, r1, r6
 80004be:	4463      	add	r3, ip
 80004c0:	0424      	lsls	r4, r4, #16
 80004c2:	1960      	adds	r0, r4, r5
 80004c4:	18c9      	adds	r1, r1, r3
 80004c6:	bcc0      	pop	{r6, r7}
 80004c8:	46b9      	mov	r9, r7
 80004ca:	46b0      	mov	r8, r6
 80004cc:	bdf0      	pop	{r4, r5, r6, r7, pc}
 80004ce:	46c0      	nop			@ (mov r8, r8)

080004d0 <__aeabi_fadd>:
 80004d0:	b5f8      	push	{r3, r4, r5, r6, r7, lr}
 80004d2:	024b      	lsls	r3, r1, #9
 80004d4:	0a5a      	lsrs	r2, r3, #9
 80004d6:	4694      	mov	ip, r2
 80004d8:	004a      	lsls	r2, r1, #1
 80004da:	0fc9      	lsrs	r1, r1, #31
 80004dc:	46ce      	mov	lr, r9
 80004de:	4647      	mov	r7, r8
 80004e0:	4689      	mov	r9, r1
 80004e2:	0045      	lsls	r5, r0, #1
 80004e4:	0246      	lsls	r6, r0, #9
 80004e6:	0e2d      	lsrs	r5, r5, #24
 80004e8:	0e12      	lsrs	r2, r2, #24
 80004ea:	b580      	push	{r7, lr}
 80004ec:	0999      	lsrs	r1, r3, #6
 80004ee:	0a77      	lsrs	r7, r6, #9
 80004f0:	0fc4      	lsrs	r4, r0, #31
 80004f2:	09b6      	lsrs	r6, r6, #6
 80004f4:	1aab      	subs	r3, r5, r2
 80004f6:	454c      	cmp	r4, r9
 80004f8:	d020      	beq.n	800053c <__aeabi_fadd+0x6c>
 80004fa:	2b00      	cmp	r3, #0
 80004fc:	dd0c      	ble.n	8000518 <__aeabi_fadd+0x48>
 80004fe:	2a00      	cmp	r2, #0
 8000500:	d134      	bne.n	800056c <__aeabi_fadd+0x9c>
 8000502:	2900      	cmp	r1, #0
 8000504:	d02a      	beq.n	800055c <__aeabi_fadd+0x8c>
 8000506:	1e5a      	subs	r2, r3, #1
 8000508:	2b01      	cmp	r3, #1
 800050a:	d100      	bne.n	800050e <__aeabi_fadd+0x3e>
 800050c:	e08f      	b.n	800062e <__aeabi_fadd+0x15e>
 800050e:	2bff      	cmp	r3, #255	@ 0xff
 8000510:	d100      	bne.n	8000514 <__aeabi_fadd+0x44>
 8000512:	e0cd      	b.n	80006b0 <__aeabi_fadd+0x1e0>
 8000514:	0013      	movs	r3, r2
 8000516:	e02f      	b.n	8000578 <__aeabi_fadd+0xa8>
 8000518:	2b00      	cmp	r3, #0
 800051a:	d060      	beq.n	80005de <__aeabi_fadd+0x10e>
 800051c:	1b53      	subs	r3, r2, r5
 800051e:	2d00      	cmp	r5, #0
 8000520:	d000      	beq.n	8000524 <__aeabi_fadd+0x54>
 8000522:	e0ee      	b.n	8000702 <__aeabi_fadd+0x232>
 8000524:	2e00      	cmp	r6, #0
 8000526:	d100      	bne.n	800052a <__aeabi_fadd+0x5a>
 8000528:	e13e      	b.n	80007a8 <__aeabi_fadd+0x2d8>
 800052a:	1e5c      	subs	r4, r3, #1
 800052c:	2b01      	cmp	r3, #1
 800052e:	d100      	bne.n	8000532 <__aeabi_fadd+0x62>
 8000530:	e16b      	b.n	800080a <__aeabi_fadd+0x33a>
 8000532:	2bff      	cmp	r3, #255	@ 0xff
 8000534:	d100      	bne.n	8000538 <__aeabi_fadd+0x68>
 8000536:	e0b9      	b.n	80006ac <__aeabi_fadd+0x1dc>
 8000538:	0023      	movs	r3, r4
 800053a:	e0e7      	b.n	800070c <__aeabi_fadd+0x23c>
 800053c:	2b00      	cmp	r3, #0
 800053e:	dc00      	bgt.n	8000542 <__aeabi_fadd+0x72>
 8000540:	e0a4      	b.n	800068c <__aeabi_fadd+0x1bc>
 8000542:	2a00      	cmp	r2, #0
 8000544:	d069      	beq.n	800061a <__aeabi_fadd+0x14a>
 8000546:	2dff      	cmp	r5, #255	@ 0xff
 8000548:	d100      	bne.n	800054c <__aeabi_fadd+0x7c>
 800054a:	e0b1      	b.n	80006b0 <__aeabi_fadd+0x1e0>
 800054c:	2280      	movs	r2, #128	@ 0x80
 800054e:	04d2      	lsls	r2, r2, #19
 8000550:	4311      	orrs	r1, r2
 8000552:	2b1b      	cmp	r3, #27
 8000554:	dc00      	bgt.n	8000558 <__aeabi_fadd+0x88>
 8000556:	e0e9      	b.n	800072c <__aeabi_fadd+0x25c>
 8000558:	002b      	movs	r3, r5
 800055a:	3605      	adds	r6, #5
 800055c:	08f7      	lsrs	r7, r6, #3
 800055e:	2bff      	cmp	r3, #255	@ 0xff
 8000560:	d100      	bne.n	8000564 <__aeabi_fadd+0x94>
 8000562:	e0a5      	b.n	80006b0 <__aeabi_fadd+0x1e0>
 8000564:	027a      	lsls	r2, r7, #9
 8000566:	0a52      	lsrs	r2, r2, #9
 8000568:	b2d8      	uxtb	r0, r3
 800056a:	e030      	b.n	80005ce <__aeabi_fadd+0xfe>
 800056c:	2dff      	cmp	r5, #255	@ 0xff
 800056e:	d100      	bne.n	8000572 <__aeabi_fadd+0xa2>
 8000570:	e09e      	b.n	80006b0 <__aeabi_fadd+0x1e0>
 8000572:	2280      	movs	r2, #128	@ 0x80
 8000574:	04d2      	lsls	r2, r2, #19
 8000576:	4311      	orrs	r1, r2
 8000578:	2001      	movs	r0, #1
 800057a:	2b1b      	cmp	r3, #27
 800057c:	dc08      	bgt.n	8000590 <__aeabi_fadd+0xc0>
 800057e:	0008      	movs	r0, r1
 8000580:	2220      	movs	r2, #32
 8000582:	40d8      	lsrs	r0, r3
 8000584:	1ad3      	subs	r3, r2, r3
 8000586:	4099      	lsls	r1, r3
 8000588:	000b      	movs	r3, r1
 800058a:	1e5a      	subs	r2, r3, #1
 800058c:	4193      	sbcs	r3, r2
 800058e:	4318      	orrs	r0, r3
 8000590:	1a36      	subs	r6, r6, r0
 8000592:	0173      	lsls	r3, r6, #5
 8000594:	d400      	bmi.n	8000598 <__aeabi_fadd+0xc8>
 8000596:	e071      	b.n	800067c <__aeabi_fadd+0x1ac>
 8000598:	01b6      	lsls	r6, r6, #6
 800059a:	09b7      	lsrs	r7, r6, #6
 800059c:	0038      	movs	r0, r7
 800059e:	f000 ff9b 	bl	80014d8 <__clzsi2>
 80005a2:	003b      	movs	r3, r7
 80005a4:	3805      	subs	r0, #5
 80005a6:	4083      	lsls	r3, r0
 80005a8:	4285      	cmp	r5, r0
 80005aa:	dd4d      	ble.n	8000648 <__aeabi_fadd+0x178>
 80005ac:	4eb4      	ldr	r6, [pc, #720]	@ (8000880 <__aeabi_fadd+0x3b0>)
 80005ae:	1a2d      	subs	r5, r5, r0
 80005b0:	401e      	ands	r6, r3
 80005b2:	075a      	lsls	r2, r3, #29
 80005b4:	d068      	beq.n	8000688 <__aeabi_fadd+0x1b8>
 80005b6:	220f      	movs	r2, #15
 80005b8:	4013      	ands	r3, r2
 80005ba:	2b04      	cmp	r3, #4
 80005bc:	d064      	beq.n	8000688 <__aeabi_fadd+0x1b8>
 80005be:	3604      	adds	r6, #4
 80005c0:	0173      	lsls	r3, r6, #5
 80005c2:	d561      	bpl.n	8000688 <__aeabi_fadd+0x1b8>
 80005c4:	1c68      	adds	r0, r5, #1
 80005c6:	2dfe      	cmp	r5, #254	@ 0xfe
 80005c8:	d154      	bne.n	8000674 <__aeabi_fadd+0x1a4>
 80005ca:	20ff      	movs	r0, #255	@ 0xff
 80005cc:	2200      	movs	r2, #0
 80005ce:	05c0      	lsls	r0, r0, #23
 80005d0:	4310      	orrs	r0, r2
 80005d2:	07e4      	lsls	r4, r4, #31
 80005d4:	4320      	orrs	r0, r4
 80005d6:	bcc0      	pop	{r6, r7}
 80005d8:	46b9      	mov	r9, r7
 80005da:	46b0      	mov	r8, r6
 80005dc:	bdf8      	pop	{r3, r4, r5, r6, r7, pc}
 80005de:	22fe      	movs	r2, #254	@ 0xfe
 80005e0:	4690      	mov	r8, r2
 80005e2:	1c68      	adds	r0, r5, #1
 80005e4:	0002      	movs	r2, r0
 80005e6:	4640      	mov	r0, r8
 80005e8:	4210      	tst	r0, r2
 80005ea:	d16b      	bne.n	80006c4 <__aeabi_fadd+0x1f4>
 80005ec:	2d00      	cmp	r5, #0
 80005ee:	d000      	beq.n	80005f2 <__aeabi_fadd+0x122>
 80005f0:	e0dd      	b.n	80007ae <__aeabi_fadd+0x2de>
 80005f2:	2e00      	cmp	r6, #0
 80005f4:	d100      	bne.n	80005f8 <__aeabi_fadd+0x128>
 80005f6:	e102      	b.n	80007fe <__aeabi_fadd+0x32e>
 80005f8:	2900      	cmp	r1, #0
 80005fa:	d0b3      	beq.n	8000564 <__aeabi_fadd+0x94>
 80005fc:	2280      	movs	r2, #128	@ 0x80
 80005fe:	1a77      	subs	r7, r6, r1
 8000600:	04d2      	lsls	r2, r2, #19
 8000602:	4217      	tst	r7, r2
 8000604:	d100      	bne.n	8000608 <__aeabi_fadd+0x138>
 8000606:	e136      	b.n	8000876 <__aeabi_fadd+0x3a6>
 8000608:	464c      	mov	r4, r9
 800060a:	1b8e      	subs	r6, r1, r6
 800060c:	d061      	beq.n	80006d2 <__aeabi_fadd+0x202>
 800060e:	2001      	movs	r0, #1
 8000610:	4216      	tst	r6, r2
 8000612:	d130      	bne.n	8000676 <__aeabi_fadd+0x1a6>
 8000614:	2300      	movs	r3, #0
 8000616:	08f7      	lsrs	r7, r6, #3
 8000618:	e7a4      	b.n	8000564 <__aeabi_fadd+0x94>
 800061a:	2900      	cmp	r1, #0
 800061c:	d09e      	beq.n	800055c <__aeabi_fadd+0x8c>
 800061e:	1e5a      	subs	r2, r3, #1
 8000620:	2b01      	cmp	r3, #1
 8000622:	d100      	bne.n	8000626 <__aeabi_fadd+0x156>
 8000624:	e0ca      	b.n	80007bc <__aeabi_fadd+0x2ec>
 8000626:	2bff      	cmp	r3, #255	@ 0xff
 8000628:	d042      	beq.n	80006b0 <__aeabi_fadd+0x1e0>
 800062a:	0013      	movs	r3, r2
 800062c:	e791      	b.n	8000552 <__aeabi_fadd+0x82>
 800062e:	1a71      	subs	r1, r6, r1
 8000630:	014b      	lsls	r3, r1, #5
 8000632:	d400      	bmi.n	8000636 <__aeabi_fadd+0x166>
 8000634:	e0d1      	b.n	80007da <__aeabi_fadd+0x30a>
 8000636:	018f      	lsls	r7, r1, #6
 8000638:	09bf      	lsrs	r7, r7, #6
 800063a:	0038      	movs	r0, r7
 800063c:	f000 ff4c 	bl	80014d8 <__clzsi2>
 8000640:	003b      	movs	r3, r7
 8000642:	3805      	subs	r0, #5
 8000644:	4083      	lsls	r3, r0
 8000646:	2501      	movs	r5, #1
 8000648:	2220      	movs	r2, #32
 800064a:	1b40      	subs	r0, r0, r5
 800064c:	3001      	adds	r0, #1
 800064e:	1a12      	subs	r2, r2, r0
 8000650:	001e      	movs	r6, r3
 8000652:	4093      	lsls	r3, r2
 8000654:	40c6      	lsrs	r6, r0
 8000656:	1e5a      	subs	r2, r3, #1
 8000658:	4193      	sbcs	r3, r2
 800065a:	431e      	orrs	r6, r3
 800065c:	d039      	beq.n	80006d2 <__aeabi_fadd+0x202>
 800065e:	0773      	lsls	r3, r6, #29
 8000660:	d100      	bne.n	8000664 <__aeabi_fadd+0x194>
 8000662:	e11b      	b.n	800089c <__aeabi_fadd+0x3cc>
 8000664:	230f      	movs	r3, #15
 8000666:	2500      	movs	r5, #0
 8000668:	4033      	ands	r3, r6
 800066a:	2b04      	cmp	r3, #4
 800066c:	d1a7      	bne.n	80005be <__aeabi_fadd+0xee>
 800066e:	2001      	movs	r0, #1
 8000670:	0172      	lsls	r2, r6, #5
 8000672:	d57c      	bpl.n	800076e <__aeabi_fadd+0x29e>
 8000674:	b2c0      	uxtb	r0, r0
 8000676:	01b2      	lsls	r2, r6, #6
 8000678:	0a52      	lsrs	r2, r2, #9
 800067a:	e7a8      	b.n	80005ce <__aeabi_fadd+0xfe>
 800067c:	0773      	lsls	r3, r6, #29
 800067e:	d003      	beq.n	8000688 <__aeabi_fadd+0x1b8>
 8000680:	230f      	movs	r3, #15
 8000682:	4033      	ands	r3, r6
 8000684:	2b04      	cmp	r3, #4
 8000686:	d19a      	bne.n	80005be <__aeabi_fadd+0xee>
 8000688:	002b      	movs	r3, r5
 800068a:	e767      	b.n	800055c <__aeabi_fadd+0x8c>
 800068c:	2b00      	cmp	r3, #0
 800068e:	d023      	beq.n	80006d8 <__aeabi_fadd+0x208>
 8000690:	1b53      	subs	r3, r2, r5
 8000692:	2d00      	cmp	r5, #0
 8000694:	d17b      	bne.n	800078e <__aeabi_fadd+0x2be>
 8000696:	2e00      	cmp	r6, #0
 8000698:	d100      	bne.n	800069c <__aeabi_fadd+0x1cc>
 800069a:	e086      	b.n	80007aa <__aeabi_fadd+0x2da>
 800069c:	1e5d      	subs	r5, r3, #1
 800069e:	2b01      	cmp	r3, #1
 80006a0:	d100      	bne.n	80006a4 <__aeabi_fadd+0x1d4>
 80006a2:	e08b      	b.n	80007bc <__aeabi_fadd+0x2ec>
 80006a4:	2bff      	cmp	r3, #255	@ 0xff
 80006a6:	d002      	beq.n	80006ae <__aeabi_fadd+0x1de>
 80006a8:	002b      	movs	r3, r5
 80006aa:	e075      	b.n	8000798 <__aeabi_fadd+0x2c8>
 80006ac:	464c      	mov	r4, r9
 80006ae:	4667      	mov	r7, ip
 80006b0:	2f00      	cmp	r7, #0
 80006b2:	d100      	bne.n	80006b6 <__aeabi_fadd+0x1e6>
 80006b4:	e789      	b.n	80005ca <__aeabi_fadd+0xfa>
 80006b6:	2280      	movs	r2, #128	@ 0x80
 80006b8:	03d2      	lsls	r2, r2, #15
 80006ba:	433a      	orrs	r2, r7
 80006bc:	0252      	lsls	r2, r2, #9
 80006be:	20ff      	movs	r0, #255	@ 0xff
 80006c0:	0a52      	lsrs	r2, r2, #9
 80006c2:	e784      	b.n	80005ce <__aeabi_fadd+0xfe>
 80006c4:	1a77      	subs	r7, r6, r1
 80006c6:	017b      	lsls	r3, r7, #5
 80006c8:	d46b      	bmi.n	80007a2 <__aeabi_fadd+0x2d2>
 80006ca:	2f00      	cmp	r7, #0
 80006cc:	d000      	beq.n	80006d0 <__aeabi_fadd+0x200>
 80006ce:	e765      	b.n	800059c <__aeabi_fadd+0xcc>
 80006d0:	2400      	movs	r4, #0
 80006d2:	2000      	movs	r0, #0
 80006d4:	2200      	movs	r2, #0
 80006d6:	e77a      	b.n	80005ce <__aeabi_fadd+0xfe>
 80006d8:	22fe      	movs	r2, #254	@ 0xfe
 80006da:	1c6b      	adds	r3, r5, #1
 80006dc:	421a      	tst	r2, r3
 80006de:	d149      	bne.n	8000774 <__aeabi_fadd+0x2a4>
 80006e0:	2d00      	cmp	r5, #0
 80006e2:	d000      	beq.n	80006e6 <__aeabi_fadd+0x216>
 80006e4:	e09f      	b.n	8000826 <__aeabi_fadd+0x356>
 80006e6:	2e00      	cmp	r6, #0
 80006e8:	d100      	bne.n	80006ec <__aeabi_fadd+0x21c>
 80006ea:	e0ba      	b.n	8000862 <__aeabi_fadd+0x392>
 80006ec:	2900      	cmp	r1, #0
 80006ee:	d100      	bne.n	80006f2 <__aeabi_fadd+0x222>
 80006f0:	e0cf      	b.n	8000892 <__aeabi_fadd+0x3c2>
 80006f2:	1872      	adds	r2, r6, r1
 80006f4:	0153      	lsls	r3, r2, #5
 80006f6:	d400      	bmi.n	80006fa <__aeabi_fadd+0x22a>
 80006f8:	e0cd      	b.n	8000896 <__aeabi_fadd+0x3c6>
 80006fa:	0192      	lsls	r2, r2, #6
 80006fc:	2001      	movs	r0, #1
 80006fe:	0a52      	lsrs	r2, r2, #9
 8000700:	e765      	b.n	80005ce <__aeabi_fadd+0xfe>
 8000702:	2aff      	cmp	r2, #255	@ 0xff
 8000704:	d0d2      	beq.n	80006ac <__aeabi_fadd+0x1dc>
 8000706:	2080      	movs	r0, #128	@ 0x80
 8000708:	04c0      	lsls	r0, r0, #19
 800070a:	4306      	orrs	r6, r0
 800070c:	2001      	movs	r0, #1
 800070e:	2b1b      	cmp	r3, #27
 8000710:	dc08      	bgt.n	8000724 <__aeabi_fadd+0x254>
 8000712:	0030      	movs	r0, r6
 8000714:	2420      	movs	r4, #32
 8000716:	40d8      	lsrs	r0, r3
 8000718:	1ae3      	subs	r3, r4, r3
 800071a:	409e      	lsls	r6, r3
 800071c:	0033      	movs	r3, r6
 800071e:	1e5c      	subs	r4, r3, #1
 8000720:	41a3      	sbcs	r3, r4
 8000722:	4318      	orrs	r0, r3
 8000724:	464c      	mov	r4, r9
 8000726:	0015      	movs	r5, r2
 8000728:	1a0e      	subs	r6, r1, r0
 800072a:	e732      	b.n	8000592 <__aeabi_fadd+0xc2>
 800072c:	0008      	movs	r0, r1
 800072e:	2220      	movs	r2, #32
 8000730:	40d8      	lsrs	r0, r3
 8000732:	1ad3      	subs	r3, r2, r3
 8000734:	4099      	lsls	r1, r3
 8000736:	000b      	movs	r3, r1
 8000738:	1e5a      	subs	r2, r3, #1
 800073a:	4193      	sbcs	r3, r2
 800073c:	4303      	orrs	r3, r0
 800073e:	18f6      	adds	r6, r6, r3
 8000740:	0173      	lsls	r3, r6, #5
 8000742:	d59b      	bpl.n	800067c <__aeabi_fadd+0x1ac>
 8000744:	3501      	adds	r5, #1
 8000746:	2dff      	cmp	r5, #255	@ 0xff
 8000748:	d100      	bne.n	800074c <__aeabi_fadd+0x27c>
 800074a:	e73e      	b.n	80005ca <__aeabi_fadd+0xfa>
 800074c:	2301      	movs	r3, #1
 800074e:	494d      	ldr	r1, [pc, #308]	@ (8000884 <__aeabi_fadd+0x3b4>)
 8000750:	0872      	lsrs	r2, r6, #1
 8000752:	4033      	ands	r3, r6
 8000754:	400a      	ands	r2, r1
 8000756:	431a      	orrs	r2, r3
 8000758:	0016      	movs	r6, r2
 800075a:	0753      	lsls	r3, r2, #29
 800075c:	d004      	beq.n	8000768 <__aeabi_fadd+0x298>
 800075e:	230f      	movs	r3, #15
 8000760:	4013      	ands	r3, r2
 8000762:	2b04      	cmp	r3, #4
 8000764:	d000      	beq.n	8000768 <__aeabi_fadd+0x298>
 8000766:	e72a      	b.n	80005be <__aeabi_fadd+0xee>
 8000768:	0173      	lsls	r3, r6, #5
 800076a:	d500      	bpl.n	800076e <__aeabi_fadd+0x29e>
 800076c:	e72a      	b.n	80005c4 <__aeabi_fadd+0xf4>
 800076e:	002b      	movs	r3, r5
 8000770:	08f7      	lsrs	r7, r6, #3
 8000772:	e6f7      	b.n	8000564 <__aeabi_fadd+0x94>
 8000774:	2bff      	cmp	r3, #255	@ 0xff
 8000776:	d100      	bne.n	800077a <__aeabi_fadd+0x2aa>
 8000778:	e727      	b.n	80005ca <__aeabi_fadd+0xfa>
 800077a:	1871      	adds	r1, r6, r1
 800077c:	0849      	lsrs	r1, r1, #1
 800077e:	074a      	lsls	r2, r1, #29
 8000780:	d02f      	beq.n	80007e2 <__aeabi_fadd+0x312>
 8000782:	220f      	movs	r2, #15
 8000784:	400a      	ands	r2, r1
 8000786:	2a04      	cmp	r2, #4
 8000788:	d02b      	beq.n	80007e2 <__aeabi_fadd+0x312>
 800078a:	1d0e      	adds	r6, r1, #4
 800078c:	e6e6      	b.n	800055c <__aeabi_fadd+0x8c>
 800078e:	2aff      	cmp	r2, #255	@ 0xff
 8000790:	d08d      	beq.n	80006ae <__aeabi_fadd+0x1de>
 8000792:	2080      	movs	r0, #128	@ 0x80
 8000794:	04c0      	lsls	r0, r0, #19
 8000796:	4306      	orrs	r6, r0
 8000798:	2b1b      	cmp	r3, #27
 800079a:	dd24      	ble.n	80007e6 <__aeabi_fadd+0x316>
 800079c:	0013      	movs	r3, r2
 800079e:	1d4e      	adds	r6, r1, #5
 80007a0:	e6dc      	b.n	800055c <__aeabi_fadd+0x8c>
 80007a2:	464c      	mov	r4, r9
 80007a4:	1b8f      	subs	r7, r1, r6
 80007a6:	e6f9      	b.n	800059c <__aeabi_fadd+0xcc>
 80007a8:	464c      	mov	r4, r9
 80007aa:	000e      	movs	r6, r1
 80007ac:	e6d6      	b.n	800055c <__aeabi_fadd+0x8c>
 80007ae:	2e00      	cmp	r6, #0
 80007b0:	d149      	bne.n	8000846 <__aeabi_fadd+0x376>
 80007b2:	2900      	cmp	r1, #0
 80007b4:	d068      	beq.n	8000888 <__aeabi_fadd+0x3b8>
 80007b6:	4667      	mov	r7, ip
 80007b8:	464c      	mov	r4, r9
 80007ba:	e77c      	b.n	80006b6 <__aeabi_fadd+0x1e6>
 80007bc:	1870      	adds	r0, r6, r1
 80007be:	0143      	lsls	r3, r0, #5
 80007c0:	d574      	bpl.n	80008ac <__aeabi_fadd+0x3dc>
 80007c2:	4930      	ldr	r1, [pc, #192]	@ (8000884 <__aeabi_fadd+0x3b4>)
 80007c4:	0840      	lsrs	r0, r0, #1
 80007c6:	4001      	ands	r1, r0
 80007c8:	0743      	lsls	r3, r0, #29
 80007ca:	d009      	beq.n	80007e0 <__aeabi_fadd+0x310>
 80007cc:	230f      	movs	r3, #15
 80007ce:	4003      	ands	r3, r0
 80007d0:	2b04      	cmp	r3, #4
 80007d2:	d005      	beq.n	80007e0 <__aeabi_fadd+0x310>
 80007d4:	2302      	movs	r3, #2
 80007d6:	1d0e      	adds	r6, r1, #4
 80007d8:	e6c0      	b.n	800055c <__aeabi_fadd+0x8c>
 80007da:	2301      	movs	r3, #1
 80007dc:	08cf      	lsrs	r7, r1, #3
 80007de:	e6c1      	b.n	8000564 <__aeabi_fadd+0x94>
 80007e0:	2302      	movs	r3, #2
 80007e2:	08cf      	lsrs	r7, r1, #3
 80007e4:	e6be      	b.n	8000564 <__aeabi_fadd+0x94>
 80007e6:	2520      	movs	r5, #32
 80007e8:	0030      	movs	r0, r6
 80007ea:	40d8      	lsrs	r0, r3
 80007ec:	1aeb      	subs	r3, r5, r3
 80007ee:	409e      	lsls	r6, r3
 80007f0:	0033      	movs	r3, r6
 80007f2:	1e5d      	subs	r5, r3, #1
 80007f4:	41ab      	sbcs	r3, r5
 80007f6:	4303      	orrs	r3, r0
 80007f8:	0015      	movs	r5, r2
 80007fa:	185e      	adds	r6, r3, r1
 80007fc:	e7a0      	b.n	8000740 <__aeabi_fadd+0x270>
 80007fe:	2900      	cmp	r1, #0
 8000800:	d100      	bne.n	8000804 <__aeabi_fadd+0x334>
 8000802:	e765      	b.n	80006d0 <__aeabi_fadd+0x200>
 8000804:	464c      	mov	r4, r9
 8000806:	4667      	mov	r7, ip
 8000808:	e6ac      	b.n	8000564 <__aeabi_fadd+0x94>
 800080a:	1b8f      	subs	r7, r1, r6
 800080c:	017b      	lsls	r3, r7, #5
 800080e:	d52e      	bpl.n	800086e <__aeabi_fadd+0x39e>
 8000810:	01bf      	lsls	r7, r7, #6
 8000812:	09bf      	lsrs	r7, r7, #6
 8000814:	0038      	movs	r0, r7
 8000816:	f000 fe5f 	bl	80014d8 <__clzsi2>
 800081a:	003b      	movs	r3, r7
 800081c:	3805      	subs	r0, #5
 800081e:	4083      	lsls	r3, r0
 8000820:	464c      	mov	r4, r9
 8000822:	3501      	adds	r5, #1
 8000824:	e710      	b.n	8000648 <__aeabi_fadd+0x178>
 8000826:	2e00      	cmp	r6, #0
 8000828:	d100      	bne.n	800082c <__aeabi_fadd+0x35c>
 800082a:	e740      	b.n	80006ae <__aeabi_fadd+0x1de>
 800082c:	2900      	cmp	r1, #0
 800082e:	d100      	bne.n	8000832 <__aeabi_fadd+0x362>
 8000830:	e741      	b.n	80006b6 <__aeabi_fadd+0x1e6>
 8000832:	2380      	movs	r3, #128	@ 0x80
 8000834:	03db      	lsls	r3, r3, #15
 8000836:	429f      	cmp	r7, r3
 8000838:	d200      	bcs.n	800083c <__aeabi_fadd+0x36c>
 800083a:	e73c      	b.n	80006b6 <__aeabi_fadd+0x1e6>
 800083c:	459c      	cmp	ip, r3
 800083e:	d300      	bcc.n	8000842 <__aeabi_fadd+0x372>
 8000840:	e739      	b.n	80006b6 <__aeabi_fadd+0x1e6>
 8000842:	4667      	mov	r7, ip
 8000844:	e737      	b.n	80006b6 <__aeabi_fadd+0x1e6>
 8000846:	2900      	cmp	r1, #0
 8000848:	d100      	bne.n	800084c <__aeabi_fadd+0x37c>
 800084a:	e734      	b.n	80006b6 <__aeabi_fadd+0x1e6>
 800084c:	2380      	movs	r3, #128	@ 0x80
 800084e:	03db      	lsls	r3, r3, #15
 8000850:	429f      	cmp	r7, r3
 8000852:	d200      	bcs.n	8000856 <__aeabi_fadd+0x386>
 8000854:	e72f      	b.n	80006b6 <__aeabi_fadd+0x1e6>
 8000856:	459c      	cmp	ip, r3
 8000858:	d300      	bcc.n	800085c <__aeabi_fadd+0x38c>
 800085a:	e72c      	b.n	80006b6 <__aeabi_fadd+0x1e6>
 800085c:	464c      	mov	r4, r9
 800085e:	4667      	mov	r7, ip
 8000860:	e729      	b.n	80006b6 <__aeabi_fadd+0x1e6>
 8000862:	2900      	cmp	r1, #0
 8000864:	d100      	bne.n	8000868 <__aeabi_fadd+0x398>
 8000866:	e734      	b.n	80006d2 <__aeabi_fadd+0x202>
 8000868:	2300      	movs	r3, #0
 800086a:	08cf      	lsrs	r7, r1, #3
 800086c:	e67a      	b.n	8000564 <__aeabi_fadd+0x94>
 800086e:	464c      	mov	r4, r9
 8000870:	2301      	movs	r3, #1
 8000872:	08ff      	lsrs	r7, r7, #3
 8000874:	e676      	b.n	8000564 <__aeabi_fadd+0x94>
 8000876:	2f00      	cmp	r7, #0
 8000878:	d100      	bne.n	800087c <__aeabi_fadd+0x3ac>
 800087a:	e729      	b.n	80006d0 <__aeabi_fadd+0x200>
 800087c:	08ff      	lsrs	r7, r7, #3
 800087e:	e671      	b.n	8000564 <__aeabi_fadd+0x94>
 8000880:	fbffffff 	.word	0xfbffffff
 8000884:	7dffffff 	.word	0x7dffffff
 8000888:	2280      	movs	r2, #128	@ 0x80
 800088a:	2400      	movs	r4, #0
 800088c:	20ff      	movs	r0, #255	@ 0xff
 800088e:	03d2      	lsls	r2, r2, #15
 8000890:	e69d      	b.n	80005ce <__aeabi_fadd+0xfe>
 8000892:	2300      	movs	r3, #0
 8000894:	e666      	b.n	8000564 <__aeabi_fadd+0x94>
 8000896:	2300      	movs	r3, #0
 8000898:	08d7      	lsrs	r7, r2, #3
 800089a:	e663      	b.n	8000564 <__aeabi_fadd+0x94>
 800089c:	2001      	movs	r0, #1
 800089e:	0172      	lsls	r2, r6, #5
 80008a0:	d500      	bpl.n	80008a4 <__aeabi_fadd+0x3d4>
 80008a2:	e6e7      	b.n	8000674 <__aeabi_fadd+0x1a4>
 80008a4:	0031      	movs	r1, r6
 80008a6:	2300      	movs	r3, #0
 80008a8:	08cf      	lsrs	r7, r1, #3
 80008aa:	e65b      	b.n	8000564 <__aeabi_fadd+0x94>
 80008ac:	2301      	movs	r3, #1
 80008ae:	08c7      	lsrs	r7, r0, #3
 80008b0:	e658      	b.n	8000564 <__aeabi_fadd+0x94>
 80008b2:	46c0      	nop			@ (mov r8, r8)

080008b4 <__aeabi_fdiv>:
 80008b4:	b5f0      	push	{r4, r5, r6, r7, lr}
 80008b6:	4646      	mov	r6, r8
 80008b8:	464f      	mov	r7, r9
 80008ba:	46d6      	mov	lr, sl
 80008bc:	0245      	lsls	r5, r0, #9
 80008be:	b5c0      	push	{r6, r7, lr}
 80008c0:	0fc3      	lsrs	r3, r0, #31
 80008c2:	0047      	lsls	r7, r0, #1
 80008c4:	4698      	mov	r8, r3
 80008c6:	1c0e      	adds	r6, r1, #0
 80008c8:	0a6d      	lsrs	r5, r5, #9
 80008ca:	0e3f      	lsrs	r7, r7, #24
 80008cc:	d05b      	beq.n	8000986 <__aeabi_fdiv+0xd2>
 80008ce:	2fff      	cmp	r7, #255	@ 0xff
 80008d0:	d021      	beq.n	8000916 <__aeabi_fdiv+0x62>
 80008d2:	2380      	movs	r3, #128	@ 0x80
 80008d4:	00ed      	lsls	r5, r5, #3
 80008d6:	04db      	lsls	r3, r3, #19
 80008d8:	431d      	orrs	r5, r3
 80008da:	2300      	movs	r3, #0
 80008dc:	4699      	mov	r9, r3
 80008de:	469a      	mov	sl, r3
 80008e0:	3f7f      	subs	r7, #127	@ 0x7f
 80008e2:	0274      	lsls	r4, r6, #9
 80008e4:	0073      	lsls	r3, r6, #1
 80008e6:	0a64      	lsrs	r4, r4, #9
 80008e8:	0e1b      	lsrs	r3, r3, #24
 80008ea:	0ff6      	lsrs	r6, r6, #31
 80008ec:	2b00      	cmp	r3, #0
 80008ee:	d020      	beq.n	8000932 <__aeabi_fdiv+0x7e>
 80008f0:	2bff      	cmp	r3, #255	@ 0xff
 80008f2:	d043      	beq.n	800097c <__aeabi_fdiv+0xc8>
 80008f4:	2280      	movs	r2, #128	@ 0x80
 80008f6:	2000      	movs	r0, #0
 80008f8:	00e4      	lsls	r4, r4, #3
 80008fa:	04d2      	lsls	r2, r2, #19
 80008fc:	4314      	orrs	r4, r2
 80008fe:	3b7f      	subs	r3, #127	@ 0x7f
 8000900:	4642      	mov	r2, r8
 8000902:	1aff      	subs	r7, r7, r3
 8000904:	464b      	mov	r3, r9
 8000906:	4072      	eors	r2, r6
 8000908:	2b0f      	cmp	r3, #15
 800090a:	d900      	bls.n	800090e <__aeabi_fdiv+0x5a>
 800090c:	e09d      	b.n	8000a4a <__aeabi_fdiv+0x196>
 800090e:	4971      	ldr	r1, [pc, #452]	@ (8000ad4 <__aeabi_fdiv+0x220>)
 8000910:	009b      	lsls	r3, r3, #2
 8000912:	58cb      	ldr	r3, [r1, r3]
 8000914:	469f      	mov	pc, r3
 8000916:	2d00      	cmp	r5, #0
 8000918:	d15a      	bne.n	80009d0 <__aeabi_fdiv+0x11c>
 800091a:	2308      	movs	r3, #8
 800091c:	4699      	mov	r9, r3
 800091e:	3b06      	subs	r3, #6
 8000920:	0274      	lsls	r4, r6, #9
 8000922:	469a      	mov	sl, r3
 8000924:	0073      	lsls	r3, r6, #1
 8000926:	27ff      	movs	r7, #255	@ 0xff
 8000928:	0a64      	lsrs	r4, r4, #9
 800092a:	0e1b      	lsrs	r3, r3, #24
 800092c:	0ff6      	lsrs	r6, r6, #31
 800092e:	2b00      	cmp	r3, #0
 8000930:	d1de      	bne.n	80008f0 <__aeabi_fdiv+0x3c>
 8000932:	2c00      	cmp	r4, #0
 8000934:	d13b      	bne.n	80009ae <__aeabi_fdiv+0xfa>
 8000936:	2301      	movs	r3, #1
 8000938:	4642      	mov	r2, r8
 800093a:	4649      	mov	r1, r9
 800093c:	4072      	eors	r2, r6
 800093e:	4319      	orrs	r1, r3
 8000940:	290e      	cmp	r1, #14
 8000942:	d818      	bhi.n	8000976 <__aeabi_fdiv+0xc2>
 8000944:	4864      	ldr	r0, [pc, #400]	@ (8000ad8 <__aeabi_fdiv+0x224>)
 8000946:	0089      	lsls	r1, r1, #2
 8000948:	5841      	ldr	r1, [r0, r1]
 800094a:	468f      	mov	pc, r1
 800094c:	4653      	mov	r3, sl
 800094e:	2b02      	cmp	r3, #2
 8000950:	d100      	bne.n	8000954 <__aeabi_fdiv+0xa0>
 8000952:	e0b8      	b.n	8000ac6 <__aeabi_fdiv+0x212>
 8000954:	2b03      	cmp	r3, #3
 8000956:	d06e      	beq.n	8000a36 <__aeabi_fdiv+0x182>
 8000958:	4642      	mov	r2, r8
 800095a:	002c      	movs	r4, r5
 800095c:	2b01      	cmp	r3, #1
 800095e:	d140      	bne.n	80009e2 <__aeabi_fdiv+0x12e>
 8000960:	2000      	movs	r0, #0
 8000962:	2400      	movs	r4, #0
 8000964:	05c0      	lsls	r0, r0, #23
 8000966:	4320      	orrs	r0, r4
 8000968:	07d2      	lsls	r2, r2, #31
 800096a:	4310      	orrs	r0, r2
 800096c:	bce0      	pop	{r5, r6, r7}
 800096e:	46ba      	mov	sl, r7
 8000970:	46b1      	mov	r9, r6
 8000972:	46a8      	mov	r8, r5
 8000974:	bdf0      	pop	{r4, r5, r6, r7, pc}
 8000976:	20ff      	movs	r0, #255	@ 0xff
 8000978:	2400      	movs	r4, #0
 800097a:	e7f3      	b.n	8000964 <__aeabi_fdiv+0xb0>
 800097c:	2c00      	cmp	r4, #0
 800097e:	d120      	bne.n	80009c2 <__aeabi_fdiv+0x10e>
 8000980:	2302      	movs	r3, #2
 8000982:	3fff      	subs	r7, #255	@ 0xff
 8000984:	e7d8      	b.n	8000938 <__aeabi_fdiv+0x84>
 8000986:	2d00      	cmp	r5, #0
 8000988:	d105      	bne.n	8000996 <__aeabi_fdiv+0xe2>
 800098a:	2304      	movs	r3, #4
 800098c:	4699      	mov	r9, r3
 800098e:	3b03      	subs	r3, #3
 8000990:	2700      	movs	r7, #0
 8000992:	469a      	mov	sl, r3
 8000994:	e7a5      	b.n	80008e2 <__aeabi_fdiv+0x2e>
 8000996:	0028      	movs	r0, r5
 8000998:	f000 fd9e 	bl	80014d8 <__clzsi2>
 800099c:	2776      	movs	r7, #118	@ 0x76
 800099e:	1f43      	subs	r3, r0, #5
 80009a0:	409d      	lsls	r5, r3
 80009a2:	2300      	movs	r3, #0
 80009a4:	427f      	negs	r7, r7
 80009a6:	4699      	mov	r9, r3
 80009a8:	469a      	mov	sl, r3
 80009aa:	1a3f      	subs	r7, r7, r0
 80009ac:	e799      	b.n	80008e2 <__aeabi_fdiv+0x2e>
 80009ae:	0020      	movs	r0, r4
 80009b0:	f000 fd92 	bl	80014d8 <__clzsi2>
 80009b4:	1f43      	subs	r3, r0, #5
 80009b6:	409c      	lsls	r4, r3
 80009b8:	2376      	movs	r3, #118	@ 0x76
 80009ba:	425b      	negs	r3, r3
 80009bc:	1a1b      	subs	r3, r3, r0
 80009be:	2000      	movs	r0, #0
 80009c0:	e79e      	b.n	8000900 <__aeabi_fdiv+0x4c>
 80009c2:	2303      	movs	r3, #3
 80009c4:	464a      	mov	r2, r9
 80009c6:	431a      	orrs	r2, r3
 80009c8:	4691      	mov	r9, r2
 80009ca:	2003      	movs	r0, #3
 80009cc:	33fc      	adds	r3, #252	@ 0xfc
 80009ce:	e797      	b.n	8000900 <__aeabi_fdiv+0x4c>
 80009d0:	230c      	movs	r3, #12
 80009d2:	4699      	mov	r9, r3
 80009d4:	3b09      	subs	r3, #9
 80009d6:	27ff      	movs	r7, #255	@ 0xff
 80009d8:	469a      	mov	sl, r3
 80009da:	e782      	b.n	80008e2 <__aeabi_fdiv+0x2e>
 80009dc:	2803      	cmp	r0, #3
 80009de:	d02c      	beq.n	8000a3a <__aeabi_fdiv+0x186>
 80009e0:	0032      	movs	r2, r6
 80009e2:	0038      	movs	r0, r7
 80009e4:	307f      	adds	r0, #127	@ 0x7f
 80009e6:	2800      	cmp	r0, #0
 80009e8:	dd47      	ble.n	8000a7a <__aeabi_fdiv+0x1c6>
 80009ea:	0763      	lsls	r3, r4, #29
 80009ec:	d004      	beq.n	80009f8 <__aeabi_fdiv+0x144>
 80009ee:	230f      	movs	r3, #15
 80009f0:	4023      	ands	r3, r4
 80009f2:	2b04      	cmp	r3, #4
 80009f4:	d000      	beq.n	80009f8 <__aeabi_fdiv+0x144>
 80009f6:	3404      	adds	r4, #4
 80009f8:	0123      	lsls	r3, r4, #4
 80009fa:	d503      	bpl.n	8000a04 <__aeabi_fdiv+0x150>
 80009fc:	0038      	movs	r0, r7
 80009fe:	4b37      	ldr	r3, [pc, #220]	@ (8000adc <__aeabi_fdiv+0x228>)
 8000a00:	3080      	adds	r0, #128	@ 0x80
 8000a02:	401c      	ands	r4, r3
 8000a04:	28fe      	cmp	r0, #254	@ 0xfe
 8000a06:	dcb6      	bgt.n	8000976 <__aeabi_fdiv+0xc2>
 8000a08:	01a4      	lsls	r4, r4, #6
 8000a0a:	0a64      	lsrs	r4, r4, #9
 8000a0c:	b2c0      	uxtb	r0, r0
 8000a0e:	e7a9      	b.n	8000964 <__aeabi_fdiv+0xb0>
 8000a10:	2480      	movs	r4, #128	@ 0x80
 8000a12:	2200      	movs	r2, #0
 8000a14:	20ff      	movs	r0, #255	@ 0xff
 8000a16:	03e4      	lsls	r4, r4, #15
 8000a18:	e7a4      	b.n	8000964 <__aeabi_fdiv+0xb0>
 8000a1a:	2380      	movs	r3, #128	@ 0x80
 8000a1c:	03db      	lsls	r3, r3, #15
 8000a1e:	421d      	tst	r5, r3
 8000a20:	d001      	beq.n	8000a26 <__aeabi_fdiv+0x172>
 8000a22:	421c      	tst	r4, r3
 8000a24:	d00b      	beq.n	8000a3e <__aeabi_fdiv+0x18a>
 8000a26:	2480      	movs	r4, #128	@ 0x80
 8000a28:	03e4      	lsls	r4, r4, #15
 8000a2a:	432c      	orrs	r4, r5
 8000a2c:	0264      	lsls	r4, r4, #9
 8000a2e:	4642      	mov	r2, r8
 8000a30:	20ff      	movs	r0, #255	@ 0xff
 8000a32:	0a64      	lsrs	r4, r4, #9
 8000a34:	e796      	b.n	8000964 <__aeabi_fdiv+0xb0>
 8000a36:	4646      	mov	r6, r8
 8000a38:	002c      	movs	r4, r5
 8000a3a:	2380      	movs	r3, #128	@ 0x80
 8000a3c:	03db      	lsls	r3, r3, #15
 8000a3e:	431c      	orrs	r4, r3
 8000a40:	0264      	lsls	r4, r4, #9
 8000a42:	0032      	movs	r2, r6
 8000a44:	20ff      	movs	r0, #255	@ 0xff
 8000a46:	0a64      	lsrs	r4, r4, #9
 8000a48:	e78c      	b.n	8000964 <__aeabi_fdiv+0xb0>
 8000a4a:	016d      	lsls	r5, r5, #5
 8000a4c:	0160      	lsls	r0, r4, #5
 8000a4e:	4285      	cmp	r5, r0
 8000a50:	d22d      	bcs.n	8000aae <__aeabi_fdiv+0x1fa>
 8000a52:	231b      	movs	r3, #27
 8000a54:	2400      	movs	r4, #0
 8000a56:	3f01      	subs	r7, #1
 8000a58:	2601      	movs	r6, #1
 8000a5a:	0029      	movs	r1, r5
 8000a5c:	0064      	lsls	r4, r4, #1
 8000a5e:	006d      	lsls	r5, r5, #1
 8000a60:	2900      	cmp	r1, #0
 8000a62:	db01      	blt.n	8000a68 <__aeabi_fdiv+0x1b4>
 8000a64:	4285      	cmp	r5, r0
 8000a66:	d301      	bcc.n	8000a6c <__aeabi_fdiv+0x1b8>
 8000a68:	1a2d      	subs	r5, r5, r0
 8000a6a:	4334      	orrs	r4, r6
 8000a6c:	3b01      	subs	r3, #1
 8000a6e:	2b00      	cmp	r3, #0
 8000a70:	d1f3      	bne.n	8000a5a <__aeabi_fdiv+0x1a6>
 8000a72:	1e6b      	subs	r3, r5, #1
 8000a74:	419d      	sbcs	r5, r3
 8000a76:	432c      	orrs	r4, r5
 8000a78:	e7b3      	b.n	80009e2 <__aeabi_fdiv+0x12e>
 8000a7a:	2301      	movs	r3, #1
 8000a7c:	1a1b      	subs	r3, r3, r0
 8000a7e:	2b1b      	cmp	r3, #27
 8000a80:	dd00      	ble.n	8000a84 <__aeabi_fdiv+0x1d0>
 8000a82:	e76d      	b.n	8000960 <__aeabi_fdiv+0xac>
 8000a84:	0021      	movs	r1, r4
 8000a86:	379e      	adds	r7, #158	@ 0x9e
 8000a88:	40d9      	lsrs	r1, r3
 8000a8a:	40bc      	lsls	r4, r7
 8000a8c:	000b      	movs	r3, r1
 8000a8e:	1e61      	subs	r1, r4, #1
 8000a90:	418c      	sbcs	r4, r1
 8000a92:	4323      	orrs	r3, r4
 8000a94:	0759      	lsls	r1, r3, #29
 8000a96:	d004      	beq.n	8000aa2 <__aeabi_fdiv+0x1ee>
 8000a98:	210f      	movs	r1, #15
 8000a9a:	4019      	ands	r1, r3
 8000a9c:	2904      	cmp	r1, #4
 8000a9e:	d000      	beq.n	8000aa2 <__aeabi_fdiv+0x1ee>
 8000aa0:	3304      	adds	r3, #4
 8000aa2:	0159      	lsls	r1, r3, #5
 8000aa4:	d413      	bmi.n	8000ace <__aeabi_fdiv+0x21a>
 8000aa6:	019b      	lsls	r3, r3, #6
 8000aa8:	2000      	movs	r0, #0
 8000aaa:	0a5c      	lsrs	r4, r3, #9
 8000aac:	e75a      	b.n	8000964 <__aeabi_fdiv+0xb0>
 8000aae:	231a      	movs	r3, #26
 8000ab0:	2401      	movs	r4, #1
 8000ab2:	1a2d      	subs	r5, r5, r0
 8000ab4:	e7d0      	b.n	8000a58 <__aeabi_fdiv+0x1a4>
 8000ab6:	1e98      	subs	r0, r3, #2
 8000ab8:	4243      	negs	r3, r0
 8000aba:	4158      	adcs	r0, r3
 8000abc:	4240      	negs	r0, r0
 8000abe:	0032      	movs	r2, r6
 8000ac0:	2400      	movs	r4, #0
 8000ac2:	b2c0      	uxtb	r0, r0
 8000ac4:	e74e      	b.n	8000964 <__aeabi_fdiv+0xb0>
 8000ac6:	4642      	mov	r2, r8
 8000ac8:	20ff      	movs	r0, #255	@ 0xff
 8000aca:	2400      	movs	r4, #0
 8000acc:	e74a      	b.n	8000964 <__aeabi_fdiv+0xb0>
 8000ace:	2001      	movs	r0, #1
 8000ad0:	2400      	movs	r4, #0
 8000ad2:	e747      	b.n	8000964 <__aeabi_fdiv+0xb0>
 8000ad4:	08004428 	.word	0x08004428
 8000ad8:	08004468 	.word	0x08004468
 8000adc:	f7ffffff 	.word	0xf7ffffff

08000ae0 <__eqsf2>:
 8000ae0:	b570      	push	{r4, r5, r6, lr}
 8000ae2:	0042      	lsls	r2, r0, #1
 8000ae4:	024e      	lsls	r6, r1, #9
 8000ae6:	004c      	lsls	r4, r1, #1
 8000ae8:	0245      	lsls	r5, r0, #9
 8000aea:	0a6d      	lsrs	r5, r5, #9
 8000aec:	0e12      	lsrs	r2, r2, #24
 8000aee:	0fc3      	lsrs	r3, r0, #31
 8000af0:	0a76      	lsrs	r6, r6, #9
 8000af2:	0e24      	lsrs	r4, r4, #24
 8000af4:	0fc9      	lsrs	r1, r1, #31
 8000af6:	2aff      	cmp	r2, #255	@ 0xff
 8000af8:	d010      	beq.n	8000b1c <__eqsf2+0x3c>
 8000afa:	2cff      	cmp	r4, #255	@ 0xff
 8000afc:	d00c      	beq.n	8000b18 <__eqsf2+0x38>
 8000afe:	2001      	movs	r0, #1
 8000b00:	42a2      	cmp	r2, r4
 8000b02:	d10a      	bne.n	8000b1a <__eqsf2+0x3a>
 8000b04:	42b5      	cmp	r5, r6
 8000b06:	d108      	bne.n	8000b1a <__eqsf2+0x3a>
 8000b08:	428b      	cmp	r3, r1
 8000b0a:	d00f      	beq.n	8000b2c <__eqsf2+0x4c>
 8000b0c:	2a00      	cmp	r2, #0
 8000b0e:	d104      	bne.n	8000b1a <__eqsf2+0x3a>
 8000b10:	0028      	movs	r0, r5
 8000b12:	1e43      	subs	r3, r0, #1
 8000b14:	4198      	sbcs	r0, r3
 8000b16:	e000      	b.n	8000b1a <__eqsf2+0x3a>
 8000b18:	2001      	movs	r0, #1
 8000b1a:	bd70      	pop	{r4, r5, r6, pc}
 8000b1c:	2001      	movs	r0, #1
 8000b1e:	2cff      	cmp	r4, #255	@ 0xff
 8000b20:	d1fb      	bne.n	8000b1a <__eqsf2+0x3a>
 8000b22:	4335      	orrs	r5, r6
 8000b24:	d1f9      	bne.n	8000b1a <__eqsf2+0x3a>
 8000b26:	404b      	eors	r3, r1
 8000b28:	0018      	movs	r0, r3
 8000b2a:	e7f6      	b.n	8000b1a <__eqsf2+0x3a>
 8000b2c:	2000      	movs	r0, #0
 8000b2e:	e7f4      	b.n	8000b1a <__eqsf2+0x3a>

08000b30 <__gesf2>:
 8000b30:	b530      	push	{r4, r5, lr}
 8000b32:	0042      	lsls	r2, r0, #1
 8000b34:	0244      	lsls	r4, r0, #9
 8000b36:	024d      	lsls	r5, r1, #9
 8000b38:	0fc3      	lsrs	r3, r0, #31
 8000b3a:	0048      	lsls	r0, r1, #1
 8000b3c:	0a64      	lsrs	r4, r4, #9
 8000b3e:	0e12      	lsrs	r2, r2, #24
 8000b40:	0a6d      	lsrs	r5, r5, #9
 8000b42:	0e00      	lsrs	r0, r0, #24
 8000b44:	0fc9      	lsrs	r1, r1, #31
 8000b46:	2aff      	cmp	r2, #255	@ 0xff
 8000b48:	d018      	beq.n	8000b7c <__gesf2+0x4c>
 8000b4a:	28ff      	cmp	r0, #255	@ 0xff
 8000b4c:	d00a      	beq.n	8000b64 <__gesf2+0x34>
 8000b4e:	2a00      	cmp	r2, #0
 8000b50:	d11e      	bne.n	8000b90 <__gesf2+0x60>
 8000b52:	2800      	cmp	r0, #0
 8000b54:	d10a      	bne.n	8000b6c <__gesf2+0x3c>
 8000b56:	2d00      	cmp	r5, #0
 8000b58:	d029      	beq.n	8000bae <__gesf2+0x7e>
 8000b5a:	2c00      	cmp	r4, #0
 8000b5c:	d12d      	bne.n	8000bba <__gesf2+0x8a>
 8000b5e:	0048      	lsls	r0, r1, #1
 8000b60:	3801      	subs	r0, #1
 8000b62:	bd30      	pop	{r4, r5, pc}
 8000b64:	2d00      	cmp	r5, #0
 8000b66:	d125      	bne.n	8000bb4 <__gesf2+0x84>
 8000b68:	2a00      	cmp	r2, #0
 8000b6a:	d101      	bne.n	8000b70 <__gesf2+0x40>
 8000b6c:	2c00      	cmp	r4, #0
 8000b6e:	d0f6      	beq.n	8000b5e <__gesf2+0x2e>
 8000b70:	428b      	cmp	r3, r1
 8000b72:	d019      	beq.n	8000ba8 <__gesf2+0x78>
 8000b74:	2001      	movs	r0, #1
 8000b76:	425b      	negs	r3, r3
 8000b78:	4318      	orrs	r0, r3
 8000b7a:	e7f2      	b.n	8000b62 <__gesf2+0x32>
 8000b7c:	2c00      	cmp	r4, #0
 8000b7e:	d119      	bne.n	8000bb4 <__gesf2+0x84>
 8000b80:	28ff      	cmp	r0, #255	@ 0xff
 8000b82:	d1f7      	bne.n	8000b74 <__gesf2+0x44>
 8000b84:	2d00      	cmp	r5, #0
 8000b86:	d115      	bne.n	8000bb4 <__gesf2+0x84>
 8000b88:	2000      	movs	r0, #0
 8000b8a:	428b      	cmp	r3, r1
 8000b8c:	d1f2      	bne.n	8000b74 <__gesf2+0x44>
 8000b8e:	e7e8      	b.n	8000b62 <__gesf2+0x32>
 8000b90:	2800      	cmp	r0, #0
 8000b92:	d0ef      	beq.n	8000b74 <__gesf2+0x44>
 8000b94:	428b      	cmp	r3, r1
 8000b96:	d1ed      	bne.n	8000b74 <__gesf2+0x44>
 8000b98:	4282      	cmp	r2, r0
 8000b9a:	dceb      	bgt.n	8000b74 <__gesf2+0x44>
 8000b9c:	db04      	blt.n	8000ba8 <__gesf2+0x78>
 8000b9e:	42ac      	cmp	r4, r5
 8000ba0:	d8e8      	bhi.n	8000b74 <__gesf2+0x44>
 8000ba2:	2000      	movs	r0, #0
 8000ba4:	42ac      	cmp	r4, r5
 8000ba6:	d2dc      	bcs.n	8000b62 <__gesf2+0x32>
 8000ba8:	0058      	lsls	r0, r3, #1
 8000baa:	3801      	subs	r0, #1
 8000bac:	e7d9      	b.n	8000b62 <__gesf2+0x32>
 8000bae:	2c00      	cmp	r4, #0
 8000bb0:	d0d7      	beq.n	8000b62 <__gesf2+0x32>
 8000bb2:	e7df      	b.n	8000b74 <__gesf2+0x44>
 8000bb4:	2002      	movs	r0, #2
 8000bb6:	4240      	negs	r0, r0
 8000bb8:	e7d3      	b.n	8000b62 <__gesf2+0x32>
 8000bba:	428b      	cmp	r3, r1
 8000bbc:	d1da      	bne.n	8000b74 <__gesf2+0x44>
 8000bbe:	e7ee      	b.n	8000b9e <__gesf2+0x6e>

08000bc0 <__lesf2>:
 8000bc0:	b530      	push	{r4, r5, lr}
 8000bc2:	0042      	lsls	r2, r0, #1
 8000bc4:	0244      	lsls	r4, r0, #9
 8000bc6:	024d      	lsls	r5, r1, #9
 8000bc8:	0fc3      	lsrs	r3, r0, #31
 8000bca:	0048      	lsls	r0, r1, #1
 8000bcc:	0a64      	lsrs	r4, r4, #9
 8000bce:	0e12      	lsrs	r2, r2, #24
 8000bd0:	0a6d      	lsrs	r5, r5, #9
 8000bd2:	0e00      	lsrs	r0, r0, #24
 8000bd4:	0fc9      	lsrs	r1, r1, #31
 8000bd6:	2aff      	cmp	r2, #255	@ 0xff
 8000bd8:	d017      	beq.n	8000c0a <__lesf2+0x4a>
 8000bda:	28ff      	cmp	r0, #255	@ 0xff
 8000bdc:	d00a      	beq.n	8000bf4 <__lesf2+0x34>
 8000bde:	2a00      	cmp	r2, #0
 8000be0:	d11b      	bne.n	8000c1a <__lesf2+0x5a>
 8000be2:	2800      	cmp	r0, #0
 8000be4:	d10a      	bne.n	8000bfc <__lesf2+0x3c>
 8000be6:	2d00      	cmp	r5, #0
 8000be8:	d01d      	beq.n	8000c26 <__lesf2+0x66>
 8000bea:	2c00      	cmp	r4, #0
 8000bec:	d12d      	bne.n	8000c4a <__lesf2+0x8a>
 8000bee:	0048      	lsls	r0, r1, #1
 8000bf0:	3801      	subs	r0, #1
 8000bf2:	e011      	b.n	8000c18 <__lesf2+0x58>
 8000bf4:	2d00      	cmp	r5, #0
 8000bf6:	d10e      	bne.n	8000c16 <__lesf2+0x56>
 8000bf8:	2a00      	cmp	r2, #0
 8000bfa:	d101      	bne.n	8000c00 <__lesf2+0x40>
 8000bfc:	2c00      	cmp	r4, #0
 8000bfe:	d0f6      	beq.n	8000bee <__lesf2+0x2e>
 8000c00:	428b      	cmp	r3, r1
 8000c02:	d10c      	bne.n	8000c1e <__lesf2+0x5e>
 8000c04:	0058      	lsls	r0, r3, #1
 8000c06:	3801      	subs	r0, #1
 8000c08:	e006      	b.n	8000c18 <__lesf2+0x58>
 8000c0a:	2c00      	cmp	r4, #0
 8000c0c:	d103      	bne.n	8000c16 <__lesf2+0x56>
 8000c0e:	28ff      	cmp	r0, #255	@ 0xff
 8000c10:	d105      	bne.n	8000c1e <__lesf2+0x5e>
 8000c12:	2d00      	cmp	r5, #0
 8000c14:	d015      	beq.n	8000c42 <__lesf2+0x82>
 8000c16:	2002      	movs	r0, #2
 8000c18:	bd30      	pop	{r4, r5, pc}
 8000c1a:	2800      	cmp	r0, #0
 8000c1c:	d106      	bne.n	8000c2c <__lesf2+0x6c>
 8000c1e:	2001      	movs	r0, #1
 8000c20:	425b      	negs	r3, r3
 8000c22:	4318      	orrs	r0, r3
 8000c24:	e7f8      	b.n	8000c18 <__lesf2+0x58>
 8000c26:	2c00      	cmp	r4, #0
 8000c28:	d0f6      	beq.n	8000c18 <__lesf2+0x58>
 8000c2a:	e7f8      	b.n	8000c1e <__lesf2+0x5e>
 8000c2c:	428b      	cmp	r3, r1
 8000c2e:	d1f6      	bne.n	8000c1e <__lesf2+0x5e>
 8000c30:	4282      	cmp	r2, r0
 8000c32:	dcf4      	bgt.n	8000c1e <__lesf2+0x5e>
 8000c34:	dbe6      	blt.n	8000c04 <__lesf2+0x44>
 8000c36:	42ac      	cmp	r4, r5
 8000c38:	d8f1      	bhi.n	8000c1e <__lesf2+0x5e>
 8000c3a:	2000      	movs	r0, #0
 8000c3c:	42ac      	cmp	r4, r5
 8000c3e:	d2eb      	bcs.n	8000c18 <__lesf2+0x58>
 8000c40:	e7e0      	b.n	8000c04 <__lesf2+0x44>
 8000c42:	2000      	movs	r0, #0
 8000c44:	428b      	cmp	r3, r1
 8000c46:	d1ea      	bne.n	8000c1e <__lesf2+0x5e>
 8000c48:	e7e6      	b.n	8000c18 <__lesf2+0x58>
 8000c4a:	428b      	cmp	r3, r1
 8000c4c:	d1e7      	bne.n	8000c1e <__lesf2+0x5e>
 8000c4e:	e7f2      	b.n	8000c36 <__lesf2+0x76>

08000c50 <__aeabi_fmul>:
 8000c50:	b5f0      	push	{r4, r5, r6, r7, lr}
 8000c52:	464f      	mov	r7, r9
 8000c54:	4646      	mov	r6, r8
 8000c56:	46d6      	mov	lr, sl
 8000c58:	0044      	lsls	r4, r0, #1
 8000c5a:	b5c0      	push	{r6, r7, lr}
 8000c5c:	0246      	lsls	r6, r0, #9
 8000c5e:	1c0f      	adds	r7, r1, #0
 8000c60:	0a76      	lsrs	r6, r6, #9
 8000c62:	0e24      	lsrs	r4, r4, #24
 8000c64:	0fc5      	lsrs	r5, r0, #31
 8000c66:	2c00      	cmp	r4, #0
 8000c68:	d100      	bne.n	8000c6c <__aeabi_fmul+0x1c>
 8000c6a:	e0da      	b.n	8000e22 <__aeabi_fmul+0x1d2>
 8000c6c:	2cff      	cmp	r4, #255	@ 0xff
 8000c6e:	d074      	beq.n	8000d5a <__aeabi_fmul+0x10a>
 8000c70:	2380      	movs	r3, #128	@ 0x80
 8000c72:	00f6      	lsls	r6, r6, #3
 8000c74:	04db      	lsls	r3, r3, #19
 8000c76:	431e      	orrs	r6, r3
 8000c78:	2300      	movs	r3, #0
 8000c7a:	4699      	mov	r9, r3
 8000c7c:	469a      	mov	sl, r3
 8000c7e:	3c7f      	subs	r4, #127	@ 0x7f
 8000c80:	027b      	lsls	r3, r7, #9
 8000c82:	0a5b      	lsrs	r3, r3, #9
 8000c84:	4698      	mov	r8, r3
 8000c86:	007b      	lsls	r3, r7, #1
 8000c88:	0e1b      	lsrs	r3, r3, #24
 8000c8a:	0fff      	lsrs	r7, r7, #31
 8000c8c:	2b00      	cmp	r3, #0
 8000c8e:	d074      	beq.n	8000d7a <__aeabi_fmul+0x12a>
 8000c90:	2bff      	cmp	r3, #255	@ 0xff
 8000c92:	d100      	bne.n	8000c96 <__aeabi_fmul+0x46>
 8000c94:	e08e      	b.n	8000db4 <__aeabi_fmul+0x164>
 8000c96:	4642      	mov	r2, r8
 8000c98:	2180      	movs	r1, #128	@ 0x80
 8000c9a:	00d2      	lsls	r2, r2, #3
 8000c9c:	04c9      	lsls	r1, r1, #19
 8000c9e:	4311      	orrs	r1, r2
 8000ca0:	3b7f      	subs	r3, #127	@ 0x7f
 8000ca2:	002a      	movs	r2, r5
 8000ca4:	18e4      	adds	r4, r4, r3
 8000ca6:	464b      	mov	r3, r9
 8000ca8:	407a      	eors	r2, r7
 8000caa:	4688      	mov	r8, r1
 8000cac:	b2d2      	uxtb	r2, r2
 8000cae:	2b0a      	cmp	r3, #10
 8000cb0:	dc75      	bgt.n	8000d9e <__aeabi_fmul+0x14e>
 8000cb2:	464b      	mov	r3, r9
 8000cb4:	2000      	movs	r0, #0
 8000cb6:	2b02      	cmp	r3, #2
 8000cb8:	dd0f      	ble.n	8000cda <__aeabi_fmul+0x8a>
 8000cba:	4649      	mov	r1, r9
 8000cbc:	2301      	movs	r3, #1
 8000cbe:	408b      	lsls	r3, r1
 8000cc0:	21a6      	movs	r1, #166	@ 0xa6
 8000cc2:	00c9      	lsls	r1, r1, #3
 8000cc4:	420b      	tst	r3, r1
 8000cc6:	d169      	bne.n	8000d9c <__aeabi_fmul+0x14c>
 8000cc8:	2190      	movs	r1, #144	@ 0x90
 8000cca:	0089      	lsls	r1, r1, #2
 8000ccc:	420b      	tst	r3, r1
 8000cce:	d000      	beq.n	8000cd2 <__aeabi_fmul+0x82>
 8000cd0:	e100      	b.n	8000ed4 <__aeabi_fmul+0x284>
 8000cd2:	2188      	movs	r1, #136	@ 0x88
 8000cd4:	4219      	tst	r1, r3
 8000cd6:	d000      	beq.n	8000cda <__aeabi_fmul+0x8a>
 8000cd8:	e0f5      	b.n	8000ec6 <__aeabi_fmul+0x276>
 8000cda:	4641      	mov	r1, r8
 8000cdc:	0409      	lsls	r1, r1, #16
 8000cde:	0c09      	lsrs	r1, r1, #16
 8000ce0:	4643      	mov	r3, r8
 8000ce2:	0008      	movs	r0, r1
 8000ce4:	0c35      	lsrs	r5, r6, #16
 8000ce6:	0436      	lsls	r6, r6, #16
 8000ce8:	0c1b      	lsrs	r3, r3, #16
 8000cea:	0c36      	lsrs	r6, r6, #16
 8000cec:	4370      	muls	r0, r6
 8000cee:	4369      	muls	r1, r5
 8000cf0:	435e      	muls	r6, r3
 8000cf2:	435d      	muls	r5, r3
 8000cf4:	1876      	adds	r6, r6, r1
 8000cf6:	0c03      	lsrs	r3, r0, #16
 8000cf8:	199b      	adds	r3, r3, r6
 8000cfa:	4299      	cmp	r1, r3
 8000cfc:	d903      	bls.n	8000d06 <__aeabi_fmul+0xb6>
 8000cfe:	2180      	movs	r1, #128	@ 0x80
 8000d00:	0249      	lsls	r1, r1, #9
 8000d02:	468c      	mov	ip, r1
 8000d04:	4465      	add	r5, ip
 8000d06:	0400      	lsls	r0, r0, #16
 8000d08:	0419      	lsls	r1, r3, #16
 8000d0a:	0c00      	lsrs	r0, r0, #16
 8000d0c:	1809      	adds	r1, r1, r0
 8000d0e:	018e      	lsls	r6, r1, #6
 8000d10:	1e70      	subs	r0, r6, #1
 8000d12:	4186      	sbcs	r6, r0
 8000d14:	0c1b      	lsrs	r3, r3, #16
 8000d16:	0e89      	lsrs	r1, r1, #26
 8000d18:	195b      	adds	r3, r3, r5
 8000d1a:	430e      	orrs	r6, r1
 8000d1c:	019b      	lsls	r3, r3, #6
 8000d1e:	431e      	orrs	r6, r3
 8000d20:	011b      	lsls	r3, r3, #4
 8000d22:	d46c      	bmi.n	8000dfe <__aeabi_fmul+0x1ae>
 8000d24:	0023      	movs	r3, r4
 8000d26:	337f      	adds	r3, #127	@ 0x7f
 8000d28:	2b00      	cmp	r3, #0
 8000d2a:	dc00      	bgt.n	8000d2e <__aeabi_fmul+0xde>
 8000d2c:	e0b1      	b.n	8000e92 <__aeabi_fmul+0x242>
 8000d2e:	0015      	movs	r5, r2
 8000d30:	0771      	lsls	r1, r6, #29
 8000d32:	d00b      	beq.n	8000d4c <__aeabi_fmul+0xfc>
 8000d34:	200f      	movs	r0, #15
 8000d36:	0021      	movs	r1, r4
 8000d38:	4030      	ands	r0, r6
 8000d3a:	2804      	cmp	r0, #4
 8000d3c:	d006      	beq.n	8000d4c <__aeabi_fmul+0xfc>
 8000d3e:	3604      	adds	r6, #4
 8000d40:	0132      	lsls	r2, r6, #4
 8000d42:	d503      	bpl.n	8000d4c <__aeabi_fmul+0xfc>
 8000d44:	4b6e      	ldr	r3, [pc, #440]	@ (8000f00 <__aeabi_fmul+0x2b0>)
 8000d46:	401e      	ands	r6, r3
 8000d48:	000b      	movs	r3, r1
 8000d4a:	3380      	adds	r3, #128	@ 0x80
 8000d4c:	2bfe      	cmp	r3, #254	@ 0xfe
 8000d4e:	dd00      	ble.n	8000d52 <__aeabi_fmul+0x102>
 8000d50:	e0bd      	b.n	8000ece <__aeabi_fmul+0x27e>
 8000d52:	01b2      	lsls	r2, r6, #6
 8000d54:	0a52      	lsrs	r2, r2, #9
 8000d56:	b2db      	uxtb	r3, r3
 8000d58:	e048      	b.n	8000dec <__aeabi_fmul+0x19c>
 8000d5a:	2e00      	cmp	r6, #0
 8000d5c:	d000      	beq.n	8000d60 <__aeabi_fmul+0x110>
 8000d5e:	e092      	b.n	8000e86 <__aeabi_fmul+0x236>
 8000d60:	2308      	movs	r3, #8
 8000d62:	4699      	mov	r9, r3
 8000d64:	3b06      	subs	r3, #6
 8000d66:	469a      	mov	sl, r3
 8000d68:	027b      	lsls	r3, r7, #9
 8000d6a:	0a5b      	lsrs	r3, r3, #9
 8000d6c:	4698      	mov	r8, r3
 8000d6e:	007b      	lsls	r3, r7, #1
 8000d70:	24ff      	movs	r4, #255	@ 0xff
 8000d72:	0e1b      	lsrs	r3, r3, #24
 8000d74:	0fff      	lsrs	r7, r7, #31
 8000d76:	2b00      	cmp	r3, #0
 8000d78:	d18a      	bne.n	8000c90 <__aeabi_fmul+0x40>
 8000d7a:	4642      	mov	r2, r8
 8000d7c:	2a00      	cmp	r2, #0
 8000d7e:	d164      	bne.n	8000e4a <__aeabi_fmul+0x1fa>
 8000d80:	4649      	mov	r1, r9
 8000d82:	3201      	adds	r2, #1
 8000d84:	4311      	orrs	r1, r2
 8000d86:	4689      	mov	r9, r1
 8000d88:	290a      	cmp	r1, #10
 8000d8a:	dc08      	bgt.n	8000d9e <__aeabi_fmul+0x14e>
 8000d8c:	407d      	eors	r5, r7
 8000d8e:	2001      	movs	r0, #1
 8000d90:	b2ea      	uxtb	r2, r5
 8000d92:	2902      	cmp	r1, #2
 8000d94:	dc91      	bgt.n	8000cba <__aeabi_fmul+0x6a>
 8000d96:	0015      	movs	r5, r2
 8000d98:	2200      	movs	r2, #0
 8000d9a:	e027      	b.n	8000dec <__aeabi_fmul+0x19c>
 8000d9c:	0015      	movs	r5, r2
 8000d9e:	4653      	mov	r3, sl
 8000da0:	2b02      	cmp	r3, #2
 8000da2:	d100      	bne.n	8000da6 <__aeabi_fmul+0x156>
 8000da4:	e093      	b.n	8000ece <__aeabi_fmul+0x27e>
 8000da6:	2b03      	cmp	r3, #3
 8000da8:	d01a      	beq.n	8000de0 <__aeabi_fmul+0x190>
 8000daa:	2b01      	cmp	r3, #1
 8000dac:	d12c      	bne.n	8000e08 <__aeabi_fmul+0x1b8>
 8000dae:	2300      	movs	r3, #0
 8000db0:	2200      	movs	r2, #0
 8000db2:	e01b      	b.n	8000dec <__aeabi_fmul+0x19c>
 8000db4:	4643      	mov	r3, r8
 8000db6:	34ff      	adds	r4, #255	@ 0xff
 8000db8:	2b00      	cmp	r3, #0
 8000dba:	d055      	beq.n	8000e68 <__aeabi_fmul+0x218>
 8000dbc:	2103      	movs	r1, #3
 8000dbe:	464b      	mov	r3, r9
 8000dc0:	430b      	orrs	r3, r1
 8000dc2:	0019      	movs	r1, r3
 8000dc4:	2b0a      	cmp	r3, #10
 8000dc6:	dc00      	bgt.n	8000dca <__aeabi_fmul+0x17a>
 8000dc8:	e092      	b.n	8000ef0 <__aeabi_fmul+0x2a0>
 8000dca:	2b0f      	cmp	r3, #15
 8000dcc:	d000      	beq.n	8000dd0 <__aeabi_fmul+0x180>
 8000dce:	e08c      	b.n	8000eea <__aeabi_fmul+0x29a>
 8000dd0:	2280      	movs	r2, #128	@ 0x80
 8000dd2:	03d2      	lsls	r2, r2, #15
 8000dd4:	4216      	tst	r6, r2
 8000dd6:	d003      	beq.n	8000de0 <__aeabi_fmul+0x190>
 8000dd8:	4643      	mov	r3, r8
 8000dda:	4213      	tst	r3, r2
 8000ddc:	d100      	bne.n	8000de0 <__aeabi_fmul+0x190>
 8000dde:	e07d      	b.n	8000edc <__aeabi_fmul+0x28c>
 8000de0:	2280      	movs	r2, #128	@ 0x80
 8000de2:	03d2      	lsls	r2, r2, #15
 8000de4:	4332      	orrs	r2, r6
 8000de6:	0252      	lsls	r2, r2, #9
 8000de8:	0a52      	lsrs	r2, r2, #9
 8000dea:	23ff      	movs	r3, #255	@ 0xff
 8000dec:	05d8      	lsls	r0, r3, #23
 8000dee:	07ed      	lsls	r5, r5, #31
 8000df0:	4310      	orrs	r0, r2
 8000df2:	4328      	orrs	r0, r5
 8000df4:	bce0      	pop	{r5, r6, r7}
 8000df6:	46ba      	mov	sl, r7
 8000df8:	46b1      	mov	r9, r6
 8000dfa:	46a8      	mov	r8, r5
 8000dfc:	bdf0      	pop	{r4, r5, r6, r7, pc}
 8000dfe:	2301      	movs	r3, #1
 8000e00:	0015      	movs	r5, r2
 8000e02:	0871      	lsrs	r1, r6, #1
 8000e04:	401e      	ands	r6, r3
 8000e06:	430e      	orrs	r6, r1
 8000e08:	0023      	movs	r3, r4
 8000e0a:	3380      	adds	r3, #128	@ 0x80
 8000e0c:	1c61      	adds	r1, r4, #1
 8000e0e:	2b00      	cmp	r3, #0
 8000e10:	dd41      	ble.n	8000e96 <__aeabi_fmul+0x246>
 8000e12:	0772      	lsls	r2, r6, #29
 8000e14:	d094      	beq.n	8000d40 <__aeabi_fmul+0xf0>
 8000e16:	220f      	movs	r2, #15
 8000e18:	4032      	ands	r2, r6
 8000e1a:	2a04      	cmp	r2, #4
 8000e1c:	d000      	beq.n	8000e20 <__aeabi_fmul+0x1d0>
 8000e1e:	e78e      	b.n	8000d3e <__aeabi_fmul+0xee>
 8000e20:	e78e      	b.n	8000d40 <__aeabi_fmul+0xf0>
 8000e22:	2e00      	cmp	r6, #0
 8000e24:	d105      	bne.n	8000e32 <__aeabi_fmul+0x1e2>
 8000e26:	2304      	movs	r3, #4
 8000e28:	4699      	mov	r9, r3
 8000e2a:	3b03      	subs	r3, #3
 8000e2c:	2400      	movs	r4, #0
 8000e2e:	469a      	mov	sl, r3
 8000e30:	e726      	b.n	8000c80 <__aeabi_fmul+0x30>
 8000e32:	0030      	movs	r0, r6
 8000e34:	f000 fb50 	bl	80014d8 <__clzsi2>
 8000e38:	2476      	movs	r4, #118	@ 0x76
 8000e3a:	1f43      	subs	r3, r0, #5
 8000e3c:	409e      	lsls	r6, r3
 8000e3e:	2300      	movs	r3, #0
 8000e40:	4264      	negs	r4, r4
 8000e42:	4699      	mov	r9, r3
 8000e44:	469a      	mov	sl, r3
 8000e46:	1a24      	subs	r4, r4, r0
 8000e48:	e71a      	b.n	8000c80 <__aeabi_fmul+0x30>
 8000e4a:	4640      	mov	r0, r8
 8000e4c:	f000 fb44 	bl	80014d8 <__clzsi2>
 8000e50:	464b      	mov	r3, r9
 8000e52:	1a24      	subs	r4, r4, r0
 8000e54:	3c76      	subs	r4, #118	@ 0x76
 8000e56:	2b0a      	cmp	r3, #10
 8000e58:	dca1      	bgt.n	8000d9e <__aeabi_fmul+0x14e>
 8000e5a:	4643      	mov	r3, r8
 8000e5c:	3805      	subs	r0, #5
 8000e5e:	4083      	lsls	r3, r0
 8000e60:	407d      	eors	r5, r7
 8000e62:	4698      	mov	r8, r3
 8000e64:	b2ea      	uxtb	r2, r5
 8000e66:	e724      	b.n	8000cb2 <__aeabi_fmul+0x62>
 8000e68:	464a      	mov	r2, r9
 8000e6a:	3302      	adds	r3, #2
 8000e6c:	4313      	orrs	r3, r2
 8000e6e:	002a      	movs	r2, r5
 8000e70:	407a      	eors	r2, r7
 8000e72:	b2d2      	uxtb	r2, r2
 8000e74:	2b0a      	cmp	r3, #10
 8000e76:	dc92      	bgt.n	8000d9e <__aeabi_fmul+0x14e>
 8000e78:	4649      	mov	r1, r9
 8000e7a:	0015      	movs	r5, r2
 8000e7c:	2900      	cmp	r1, #0
 8000e7e:	d026      	beq.n	8000ece <__aeabi_fmul+0x27e>
 8000e80:	4699      	mov	r9, r3
 8000e82:	2002      	movs	r0, #2
 8000e84:	e719      	b.n	8000cba <__aeabi_fmul+0x6a>
 8000e86:	230c      	movs	r3, #12
 8000e88:	4699      	mov	r9, r3
 8000e8a:	3b09      	subs	r3, #9
 8000e8c:	24ff      	movs	r4, #255	@ 0xff
 8000e8e:	469a      	mov	sl, r3
 8000e90:	e6f6      	b.n	8000c80 <__aeabi_fmul+0x30>
 8000e92:	0015      	movs	r5, r2
 8000e94:	0021      	movs	r1, r4
 8000e96:	2201      	movs	r2, #1
 8000e98:	1ad3      	subs	r3, r2, r3
 8000e9a:	2b1b      	cmp	r3, #27
 8000e9c:	dd00      	ble.n	8000ea0 <__aeabi_fmul+0x250>
 8000e9e:	e786      	b.n	8000dae <__aeabi_fmul+0x15e>
 8000ea0:	319e      	adds	r1, #158	@ 0x9e
 8000ea2:	0032      	movs	r2, r6
 8000ea4:	408e      	lsls	r6, r1
 8000ea6:	40da      	lsrs	r2, r3
 8000ea8:	1e73      	subs	r3, r6, #1
 8000eaa:	419e      	sbcs	r6, r3
 8000eac:	4332      	orrs	r2, r6
 8000eae:	0753      	lsls	r3, r2, #29
 8000eb0:	d004      	beq.n	8000ebc <__aeabi_fmul+0x26c>
 8000eb2:	230f      	movs	r3, #15
 8000eb4:	4013      	ands	r3, r2
 8000eb6:	2b04      	cmp	r3, #4
 8000eb8:	d000      	beq.n	8000ebc <__aeabi_fmul+0x26c>
 8000eba:	3204      	adds	r2, #4
 8000ebc:	0153      	lsls	r3, r2, #5
 8000ebe:	d510      	bpl.n	8000ee2 <__aeabi_fmul+0x292>
 8000ec0:	2301      	movs	r3, #1
 8000ec2:	2200      	movs	r2, #0
 8000ec4:	e792      	b.n	8000dec <__aeabi_fmul+0x19c>
 8000ec6:	003d      	movs	r5, r7
 8000ec8:	4646      	mov	r6, r8
 8000eca:	4682      	mov	sl, r0
 8000ecc:	e767      	b.n	8000d9e <__aeabi_fmul+0x14e>
 8000ece:	23ff      	movs	r3, #255	@ 0xff
 8000ed0:	2200      	movs	r2, #0
 8000ed2:	e78b      	b.n	8000dec <__aeabi_fmul+0x19c>
 8000ed4:	2280      	movs	r2, #128	@ 0x80
 8000ed6:	2500      	movs	r5, #0
 8000ed8:	03d2      	lsls	r2, r2, #15
 8000eda:	e786      	b.n	8000dea <__aeabi_fmul+0x19a>
 8000edc:	003d      	movs	r5, r7
 8000ede:	431a      	orrs	r2, r3
 8000ee0:	e783      	b.n	8000dea <__aeabi_fmul+0x19a>
 8000ee2:	0192      	lsls	r2, r2, #6
 8000ee4:	2300      	movs	r3, #0
 8000ee6:	0a52      	lsrs	r2, r2, #9
 8000ee8:	e780      	b.n	8000dec <__aeabi_fmul+0x19c>
 8000eea:	003d      	movs	r5, r7
 8000eec:	4646      	mov	r6, r8
 8000eee:	e777      	b.n	8000de0 <__aeabi_fmul+0x190>
 8000ef0:	002a      	movs	r2, r5
 8000ef2:	2301      	movs	r3, #1
 8000ef4:	407a      	eors	r2, r7
 8000ef6:	408b      	lsls	r3, r1
 8000ef8:	2003      	movs	r0, #3
 8000efa:	b2d2      	uxtb	r2, r2
 8000efc:	e6e9      	b.n	8000cd2 <__aeabi_fmul+0x82>
 8000efe:	46c0      	nop			@ (mov r8, r8)
 8000f00:	f7ffffff 	.word	0xf7ffffff

08000f04 <__aeabi_fsub>:
 8000f04:	b5f8      	push	{r3, r4, r5, r6, r7, lr}
 8000f06:	4647      	mov	r7, r8
 8000f08:	46ce      	mov	lr, r9
 8000f0a:	0243      	lsls	r3, r0, #9
 8000f0c:	b580      	push	{r7, lr}
 8000f0e:	0a5f      	lsrs	r7, r3, #9
 8000f10:	099b      	lsrs	r3, r3, #6
 8000f12:	0045      	lsls	r5, r0, #1
 8000f14:	004a      	lsls	r2, r1, #1
 8000f16:	469c      	mov	ip, r3
 8000f18:	024b      	lsls	r3, r1, #9
 8000f1a:	0fc4      	lsrs	r4, r0, #31
 8000f1c:	0fce      	lsrs	r6, r1, #31
 8000f1e:	0e2d      	lsrs	r5, r5, #24
 8000f20:	0a58      	lsrs	r0, r3, #9
 8000f22:	0e12      	lsrs	r2, r2, #24
 8000f24:	0999      	lsrs	r1, r3, #6
 8000f26:	2aff      	cmp	r2, #255	@ 0xff
 8000f28:	d06b      	beq.n	8001002 <__aeabi_fsub+0xfe>
 8000f2a:	2301      	movs	r3, #1
 8000f2c:	405e      	eors	r6, r3
 8000f2e:	1aab      	subs	r3, r5, r2
 8000f30:	42b4      	cmp	r4, r6
 8000f32:	d04b      	beq.n	8000fcc <__aeabi_fsub+0xc8>
 8000f34:	2b00      	cmp	r3, #0
 8000f36:	dc00      	bgt.n	8000f3a <__aeabi_fsub+0x36>
 8000f38:	e0ff      	b.n	800113a <__aeabi_fsub+0x236>
 8000f3a:	2a00      	cmp	r2, #0
 8000f3c:	d100      	bne.n	8000f40 <__aeabi_fsub+0x3c>
 8000f3e:	e088      	b.n	8001052 <__aeabi_fsub+0x14e>
 8000f40:	2dff      	cmp	r5, #255	@ 0xff
 8000f42:	d100      	bne.n	8000f46 <__aeabi_fsub+0x42>
 8000f44:	e0ef      	b.n	8001126 <__aeabi_fsub+0x222>
 8000f46:	2280      	movs	r2, #128	@ 0x80
 8000f48:	04d2      	lsls	r2, r2, #19
 8000f4a:	4311      	orrs	r1, r2
 8000f4c:	2001      	movs	r0, #1
 8000f4e:	2b1b      	cmp	r3, #27
 8000f50:	dc08      	bgt.n	8000f64 <__aeabi_fsub+0x60>
 8000f52:	0008      	movs	r0, r1
 8000f54:	2220      	movs	r2, #32
 8000f56:	40d8      	lsrs	r0, r3
 8000f58:	1ad3      	subs	r3, r2, r3
 8000f5a:	4099      	lsls	r1, r3
 8000f5c:	000b      	movs	r3, r1
 8000f5e:	1e5a      	subs	r2, r3, #1
 8000f60:	4193      	sbcs	r3, r2
 8000f62:	4318      	orrs	r0, r3
 8000f64:	4663      	mov	r3, ip
 8000f66:	1a1b      	subs	r3, r3, r0
 8000f68:	469c      	mov	ip, r3
 8000f6a:	4663      	mov	r3, ip
 8000f6c:	015b      	lsls	r3, r3, #5
 8000f6e:	d400      	bmi.n	8000f72 <__aeabi_fsub+0x6e>
 8000f70:	e0cd      	b.n	800110e <__aeabi_fsub+0x20a>
 8000f72:	4663      	mov	r3, ip
 8000f74:	019f      	lsls	r7, r3, #6
 8000f76:	09bf      	lsrs	r7, r7, #6
 8000f78:	0038      	movs	r0, r7
 8000f7a:	f000 faad 	bl	80014d8 <__clzsi2>
 8000f7e:	003b      	movs	r3, r7
 8000f80:	3805      	subs	r0, #5
 8000f82:	4083      	lsls	r3, r0
 8000f84:	4285      	cmp	r5, r0
 8000f86:	dc00      	bgt.n	8000f8a <__aeabi_fsub+0x86>
 8000f88:	e0a2      	b.n	80010d0 <__aeabi_fsub+0x1cc>
 8000f8a:	4ab7      	ldr	r2, [pc, #732]	@ (8001268 <__aeabi_fsub+0x364>)
 8000f8c:	1a2d      	subs	r5, r5, r0
 8000f8e:	401a      	ands	r2, r3
 8000f90:	4694      	mov	ip, r2
 8000f92:	075a      	lsls	r2, r3, #29
 8000f94:	d100      	bne.n	8000f98 <__aeabi_fsub+0x94>
 8000f96:	e0c3      	b.n	8001120 <__aeabi_fsub+0x21c>
 8000f98:	220f      	movs	r2, #15
 8000f9a:	4013      	ands	r3, r2
 8000f9c:	2b04      	cmp	r3, #4
 8000f9e:	d100      	bne.n	8000fa2 <__aeabi_fsub+0x9e>
 8000fa0:	e0be      	b.n	8001120 <__aeabi_fsub+0x21c>
 8000fa2:	2304      	movs	r3, #4
 8000fa4:	4698      	mov	r8, r3
 8000fa6:	44c4      	add	ip, r8
 8000fa8:	4663      	mov	r3, ip
 8000faa:	015b      	lsls	r3, r3, #5
 8000fac:	d400      	bmi.n	8000fb0 <__aeabi_fsub+0xac>
 8000fae:	e0b7      	b.n	8001120 <__aeabi_fsub+0x21c>
 8000fb0:	1c68      	adds	r0, r5, #1
 8000fb2:	2dfe      	cmp	r5, #254	@ 0xfe
 8000fb4:	d000      	beq.n	8000fb8 <__aeabi_fsub+0xb4>
 8000fb6:	e0a5      	b.n	8001104 <__aeabi_fsub+0x200>
 8000fb8:	20ff      	movs	r0, #255	@ 0xff
 8000fba:	2200      	movs	r2, #0
 8000fbc:	05c0      	lsls	r0, r0, #23
 8000fbe:	4310      	orrs	r0, r2
 8000fc0:	07e4      	lsls	r4, r4, #31
 8000fc2:	4320      	orrs	r0, r4
 8000fc4:	bcc0      	pop	{r6, r7}
 8000fc6:	46b9      	mov	r9, r7
 8000fc8:	46b0      	mov	r8, r6
 8000fca:	bdf8      	pop	{r3, r4, r5, r6, r7, pc}
 8000fcc:	2b00      	cmp	r3, #0
 8000fce:	dc00      	bgt.n	8000fd2 <__aeabi_fsub+0xce>
 8000fd0:	e1eb      	b.n	80013aa <__aeabi_fsub+0x4a6>
 8000fd2:	2a00      	cmp	r2, #0
 8000fd4:	d046      	beq.n	8001064 <__aeabi_fsub+0x160>
 8000fd6:	2dff      	cmp	r5, #255	@ 0xff
 8000fd8:	d100      	bne.n	8000fdc <__aeabi_fsub+0xd8>
 8000fda:	e0a4      	b.n	8001126 <__aeabi_fsub+0x222>
 8000fdc:	2280      	movs	r2, #128	@ 0x80
 8000fde:	04d2      	lsls	r2, r2, #19
 8000fe0:	4311      	orrs	r1, r2
 8000fe2:	2b1b      	cmp	r3, #27
 8000fe4:	dc00      	bgt.n	8000fe8 <__aeabi_fsub+0xe4>
 8000fe6:	e0fb      	b.n	80011e0 <__aeabi_fsub+0x2dc>
 8000fe8:	2305      	movs	r3, #5
 8000fea:	4698      	mov	r8, r3
 8000fec:	002b      	movs	r3, r5
 8000fee:	44c4      	add	ip, r8
 8000ff0:	4662      	mov	r2, ip
 8000ff2:	08d7      	lsrs	r7, r2, #3
 8000ff4:	2bff      	cmp	r3, #255	@ 0xff
 8000ff6:	d100      	bne.n	8000ffa <__aeabi_fsub+0xf6>
 8000ff8:	e095      	b.n	8001126 <__aeabi_fsub+0x222>
 8000ffa:	027a      	lsls	r2, r7, #9
 8000ffc:	0a52      	lsrs	r2, r2, #9
 8000ffe:	b2d8      	uxtb	r0, r3
 8001000:	e7dc      	b.n	8000fbc <__aeabi_fsub+0xb8>
 8001002:	002b      	movs	r3, r5
 8001004:	3bff      	subs	r3, #255	@ 0xff
 8001006:	4699      	mov	r9, r3
 8001008:	2900      	cmp	r1, #0
 800100a:	d118      	bne.n	800103e <__aeabi_fsub+0x13a>
 800100c:	2301      	movs	r3, #1
 800100e:	405e      	eors	r6, r3
 8001010:	42b4      	cmp	r4, r6
 8001012:	d100      	bne.n	8001016 <__aeabi_fsub+0x112>
 8001014:	e0ca      	b.n	80011ac <__aeabi_fsub+0x2a8>
 8001016:	464b      	mov	r3, r9
 8001018:	2b00      	cmp	r3, #0
 800101a:	d02d      	beq.n	8001078 <__aeabi_fsub+0x174>
 800101c:	2d00      	cmp	r5, #0
 800101e:	d000      	beq.n	8001022 <__aeabi_fsub+0x11e>
 8001020:	e13c      	b.n	800129c <__aeabi_fsub+0x398>
 8001022:	23ff      	movs	r3, #255	@ 0xff
 8001024:	4664      	mov	r4, ip
 8001026:	2c00      	cmp	r4, #0
 8001028:	d100      	bne.n	800102c <__aeabi_fsub+0x128>
 800102a:	e15f      	b.n	80012ec <__aeabi_fsub+0x3e8>
 800102c:	1e5d      	subs	r5, r3, #1
 800102e:	2b01      	cmp	r3, #1
 8001030:	d100      	bne.n	8001034 <__aeabi_fsub+0x130>
 8001032:	e174      	b.n	800131e <__aeabi_fsub+0x41a>
 8001034:	0034      	movs	r4, r6
 8001036:	2bff      	cmp	r3, #255	@ 0xff
 8001038:	d074      	beq.n	8001124 <__aeabi_fsub+0x220>
 800103a:	002b      	movs	r3, r5
 800103c:	e103      	b.n	8001246 <__aeabi_fsub+0x342>
 800103e:	42b4      	cmp	r4, r6
 8001040:	d100      	bne.n	8001044 <__aeabi_fsub+0x140>
 8001042:	e09c      	b.n	800117e <__aeabi_fsub+0x27a>
 8001044:	2b00      	cmp	r3, #0
 8001046:	d017      	beq.n	8001078 <__aeabi_fsub+0x174>
 8001048:	2d00      	cmp	r5, #0
 800104a:	d0ea      	beq.n	8001022 <__aeabi_fsub+0x11e>
 800104c:	0007      	movs	r7, r0
 800104e:	0034      	movs	r4, r6
 8001050:	e06c      	b.n	800112c <__aeabi_fsub+0x228>
 8001052:	2900      	cmp	r1, #0
 8001054:	d0cc      	beq.n	8000ff0 <__aeabi_fsub+0xec>
 8001056:	1e5a      	subs	r2, r3, #1
 8001058:	2b01      	cmp	r3, #1
 800105a:	d02b      	beq.n	80010b4 <__aeabi_fsub+0x1b0>
 800105c:	2bff      	cmp	r3, #255	@ 0xff
 800105e:	d062      	beq.n	8001126 <__aeabi_fsub+0x222>
 8001060:	0013      	movs	r3, r2
 8001062:	e773      	b.n	8000f4c <__aeabi_fsub+0x48>
 8001064:	2900      	cmp	r1, #0
 8001066:	d0c3      	beq.n	8000ff0 <__aeabi_fsub+0xec>
 8001068:	1e5a      	subs	r2, r3, #1
 800106a:	2b01      	cmp	r3, #1
 800106c:	d100      	bne.n	8001070 <__aeabi_fsub+0x16c>
 800106e:	e11e      	b.n	80012ae <__aeabi_fsub+0x3aa>
 8001070:	2bff      	cmp	r3, #255	@ 0xff
 8001072:	d058      	beq.n	8001126 <__aeabi_fsub+0x222>
 8001074:	0013      	movs	r3, r2
 8001076:	e7b4      	b.n	8000fe2 <__aeabi_fsub+0xde>
 8001078:	22fe      	movs	r2, #254	@ 0xfe
 800107a:	1c6b      	adds	r3, r5, #1
 800107c:	421a      	tst	r2, r3
 800107e:	d10d      	bne.n	800109c <__aeabi_fsub+0x198>
 8001080:	2d00      	cmp	r5, #0
 8001082:	d060      	beq.n	8001146 <__aeabi_fsub+0x242>
 8001084:	4663      	mov	r3, ip
 8001086:	2b00      	cmp	r3, #0
 8001088:	d000      	beq.n	800108c <__aeabi_fsub+0x188>
 800108a:	e120      	b.n	80012ce <__aeabi_fsub+0x3ca>
 800108c:	2900      	cmp	r1, #0
 800108e:	d000      	beq.n	8001092 <__aeabi_fsub+0x18e>
 8001090:	e128      	b.n	80012e4 <__aeabi_fsub+0x3e0>
 8001092:	2280      	movs	r2, #128	@ 0x80
 8001094:	2400      	movs	r4, #0
 8001096:	20ff      	movs	r0, #255	@ 0xff
 8001098:	03d2      	lsls	r2, r2, #15
 800109a:	e78f      	b.n	8000fbc <__aeabi_fsub+0xb8>
 800109c:	4663      	mov	r3, ip
 800109e:	1a5f      	subs	r7, r3, r1
 80010a0:	017b      	lsls	r3, r7, #5
 80010a2:	d500      	bpl.n	80010a6 <__aeabi_fsub+0x1a2>
 80010a4:	e0fe      	b.n	80012a4 <__aeabi_fsub+0x3a0>
 80010a6:	2f00      	cmp	r7, #0
 80010a8:	d000      	beq.n	80010ac <__aeabi_fsub+0x1a8>
 80010aa:	e765      	b.n	8000f78 <__aeabi_fsub+0x74>
 80010ac:	2400      	movs	r4, #0
 80010ae:	2000      	movs	r0, #0
 80010b0:	2200      	movs	r2, #0
 80010b2:	e783      	b.n	8000fbc <__aeabi_fsub+0xb8>
 80010b4:	4663      	mov	r3, ip
 80010b6:	1a59      	subs	r1, r3, r1
 80010b8:	014b      	lsls	r3, r1, #5
 80010ba:	d400      	bmi.n	80010be <__aeabi_fsub+0x1ba>
 80010bc:	e119      	b.n	80012f2 <__aeabi_fsub+0x3ee>
 80010be:	018f      	lsls	r7, r1, #6
 80010c0:	09bf      	lsrs	r7, r7, #6
 80010c2:	0038      	movs	r0, r7
 80010c4:	f000 fa08 	bl	80014d8 <__clzsi2>
 80010c8:	003b      	movs	r3, r7
 80010ca:	3805      	subs	r0, #5
 80010cc:	4083      	lsls	r3, r0
 80010ce:	2501      	movs	r5, #1
 80010d0:	2220      	movs	r2, #32
 80010d2:	1b40      	subs	r0, r0, r5
 80010d4:	3001      	adds	r0, #1
 80010d6:	1a12      	subs	r2, r2, r0
 80010d8:	0019      	movs	r1, r3
 80010da:	4093      	lsls	r3, r2
 80010dc:	40c1      	lsrs	r1, r0
 80010de:	1e5a      	subs	r2, r3, #1
 80010e0:	4193      	sbcs	r3, r2
 80010e2:	4319      	orrs	r1, r3
 80010e4:	468c      	mov	ip, r1
 80010e6:	1e0b      	subs	r3, r1, #0
 80010e8:	d0e1      	beq.n	80010ae <__aeabi_fsub+0x1aa>
 80010ea:	075b      	lsls	r3, r3, #29
 80010ec:	d100      	bne.n	80010f0 <__aeabi_fsub+0x1ec>
 80010ee:	e152      	b.n	8001396 <__aeabi_fsub+0x492>
 80010f0:	230f      	movs	r3, #15
 80010f2:	2500      	movs	r5, #0
 80010f4:	400b      	ands	r3, r1
 80010f6:	2b04      	cmp	r3, #4
 80010f8:	d000      	beq.n	80010fc <__aeabi_fsub+0x1f8>
 80010fa:	e752      	b.n	8000fa2 <__aeabi_fsub+0x9e>
 80010fc:	2001      	movs	r0, #1
 80010fe:	014a      	lsls	r2, r1, #5
 8001100:	d400      	bmi.n	8001104 <__aeabi_fsub+0x200>
 8001102:	e092      	b.n	800122a <__aeabi_fsub+0x326>
 8001104:	b2c0      	uxtb	r0, r0
 8001106:	4663      	mov	r3, ip
 8001108:	019a      	lsls	r2, r3, #6
 800110a:	0a52      	lsrs	r2, r2, #9
 800110c:	e756      	b.n	8000fbc <__aeabi_fsub+0xb8>
 800110e:	4663      	mov	r3, ip
 8001110:	075b      	lsls	r3, r3, #29
 8001112:	d005      	beq.n	8001120 <__aeabi_fsub+0x21c>
 8001114:	230f      	movs	r3, #15
 8001116:	4662      	mov	r2, ip
 8001118:	4013      	ands	r3, r2
 800111a:	2b04      	cmp	r3, #4
 800111c:	d000      	beq.n	8001120 <__aeabi_fsub+0x21c>
 800111e:	e740      	b.n	8000fa2 <__aeabi_fsub+0x9e>
 8001120:	002b      	movs	r3, r5
 8001122:	e765      	b.n	8000ff0 <__aeabi_fsub+0xec>
 8001124:	0007      	movs	r7, r0
 8001126:	2f00      	cmp	r7, #0
 8001128:	d100      	bne.n	800112c <__aeabi_fsub+0x228>
 800112a:	e745      	b.n	8000fb8 <__aeabi_fsub+0xb4>
 800112c:	2280      	movs	r2, #128	@ 0x80
 800112e:	03d2      	lsls	r2, r2, #15
 8001130:	433a      	orrs	r2, r7
 8001132:	0252      	lsls	r2, r2, #9
 8001134:	20ff      	movs	r0, #255	@ 0xff
 8001136:	0a52      	lsrs	r2, r2, #9
 8001138:	e740      	b.n	8000fbc <__aeabi_fsub+0xb8>
 800113a:	2b00      	cmp	r3, #0
 800113c:	d179      	bne.n	8001232 <__aeabi_fsub+0x32e>
 800113e:	22fe      	movs	r2, #254	@ 0xfe
 8001140:	1c6b      	adds	r3, r5, #1
 8001142:	421a      	tst	r2, r3
 8001144:	d1aa      	bne.n	800109c <__aeabi_fsub+0x198>
 8001146:	4663      	mov	r3, ip
 8001148:	2b00      	cmp	r3, #0
 800114a:	d100      	bne.n	800114e <__aeabi_fsub+0x24a>
 800114c:	e0f5      	b.n	800133a <__aeabi_fsub+0x436>
 800114e:	2900      	cmp	r1, #0
 8001150:	d100      	bne.n	8001154 <__aeabi_fsub+0x250>
 8001152:	e0d1      	b.n	80012f8 <__aeabi_fsub+0x3f4>
 8001154:	1a5f      	subs	r7, r3, r1
 8001156:	2380      	movs	r3, #128	@ 0x80
 8001158:	04db      	lsls	r3, r3, #19
 800115a:	421f      	tst	r7, r3
 800115c:	d100      	bne.n	8001160 <__aeabi_fsub+0x25c>
 800115e:	e10e      	b.n	800137e <__aeabi_fsub+0x47a>
 8001160:	4662      	mov	r2, ip
 8001162:	2401      	movs	r4, #1
 8001164:	1a8a      	subs	r2, r1, r2
 8001166:	4694      	mov	ip, r2
 8001168:	2000      	movs	r0, #0
 800116a:	4034      	ands	r4, r6
 800116c:	2a00      	cmp	r2, #0
 800116e:	d100      	bne.n	8001172 <__aeabi_fsub+0x26e>
 8001170:	e724      	b.n	8000fbc <__aeabi_fsub+0xb8>
 8001172:	2001      	movs	r0, #1
 8001174:	421a      	tst	r2, r3
 8001176:	d1c6      	bne.n	8001106 <__aeabi_fsub+0x202>
 8001178:	2300      	movs	r3, #0
 800117a:	08d7      	lsrs	r7, r2, #3
 800117c:	e73d      	b.n	8000ffa <__aeabi_fsub+0xf6>
 800117e:	2b00      	cmp	r3, #0
 8001180:	d017      	beq.n	80011b2 <__aeabi_fsub+0x2ae>
 8001182:	2d00      	cmp	r5, #0
 8001184:	d000      	beq.n	8001188 <__aeabi_fsub+0x284>
 8001186:	e0af      	b.n	80012e8 <__aeabi_fsub+0x3e4>
 8001188:	23ff      	movs	r3, #255	@ 0xff
 800118a:	4665      	mov	r5, ip
 800118c:	2d00      	cmp	r5, #0
 800118e:	d100      	bne.n	8001192 <__aeabi_fsub+0x28e>
 8001190:	e0ad      	b.n	80012ee <__aeabi_fsub+0x3ea>
 8001192:	1e5e      	subs	r6, r3, #1
 8001194:	2b01      	cmp	r3, #1
 8001196:	d100      	bne.n	800119a <__aeabi_fsub+0x296>
 8001198:	e089      	b.n	80012ae <__aeabi_fsub+0x3aa>
 800119a:	2bff      	cmp	r3, #255	@ 0xff
 800119c:	d0c2      	beq.n	8001124 <__aeabi_fsub+0x220>
 800119e:	2e1b      	cmp	r6, #27
 80011a0:	dc00      	bgt.n	80011a4 <__aeabi_fsub+0x2a0>
 80011a2:	e0ab      	b.n	80012fc <__aeabi_fsub+0x3f8>
 80011a4:	1d4b      	adds	r3, r1, #5
 80011a6:	469c      	mov	ip, r3
 80011a8:	0013      	movs	r3, r2
 80011aa:	e721      	b.n	8000ff0 <__aeabi_fsub+0xec>
 80011ac:	464b      	mov	r3, r9
 80011ae:	2b00      	cmp	r3, #0
 80011b0:	d170      	bne.n	8001294 <__aeabi_fsub+0x390>
 80011b2:	22fe      	movs	r2, #254	@ 0xfe
 80011b4:	1c6b      	adds	r3, r5, #1
 80011b6:	421a      	tst	r2, r3
 80011b8:	d15e      	bne.n	8001278 <__aeabi_fsub+0x374>
 80011ba:	2d00      	cmp	r5, #0
 80011bc:	d000      	beq.n	80011c0 <__aeabi_fsub+0x2bc>
 80011be:	e0c3      	b.n	8001348 <__aeabi_fsub+0x444>
 80011c0:	4663      	mov	r3, ip
 80011c2:	2b00      	cmp	r3, #0
 80011c4:	d100      	bne.n	80011c8 <__aeabi_fsub+0x2c4>
 80011c6:	e0d0      	b.n	800136a <__aeabi_fsub+0x466>
 80011c8:	2900      	cmp	r1, #0
 80011ca:	d100      	bne.n	80011ce <__aeabi_fsub+0x2ca>
 80011cc:	e094      	b.n	80012f8 <__aeabi_fsub+0x3f4>
 80011ce:	000a      	movs	r2, r1
 80011d0:	4462      	add	r2, ip
 80011d2:	0153      	lsls	r3, r2, #5
 80011d4:	d400      	bmi.n	80011d8 <__aeabi_fsub+0x2d4>
 80011d6:	e0d8      	b.n	800138a <__aeabi_fsub+0x486>
 80011d8:	0192      	lsls	r2, r2, #6
 80011da:	2001      	movs	r0, #1
 80011dc:	0a52      	lsrs	r2, r2, #9
 80011de:	e6ed      	b.n	8000fbc <__aeabi_fsub+0xb8>
 80011e0:	0008      	movs	r0, r1
 80011e2:	2220      	movs	r2, #32
 80011e4:	40d8      	lsrs	r0, r3
 80011e6:	1ad3      	subs	r3, r2, r3
 80011e8:	4099      	lsls	r1, r3
 80011ea:	000b      	movs	r3, r1
 80011ec:	1e5a      	subs	r2, r3, #1
 80011ee:	4193      	sbcs	r3, r2
 80011f0:	4303      	orrs	r3, r0
 80011f2:	449c      	add	ip, r3
 80011f4:	4663      	mov	r3, ip
 80011f6:	015b      	lsls	r3, r3, #5
 80011f8:	d589      	bpl.n	800110e <__aeabi_fsub+0x20a>
 80011fa:	3501      	adds	r5, #1
 80011fc:	2dff      	cmp	r5, #255	@ 0xff
 80011fe:	d100      	bne.n	8001202 <__aeabi_fsub+0x2fe>
 8001200:	e6da      	b.n	8000fb8 <__aeabi_fsub+0xb4>
 8001202:	4662      	mov	r2, ip
 8001204:	2301      	movs	r3, #1
 8001206:	4919      	ldr	r1, [pc, #100]	@ (800126c <__aeabi_fsub+0x368>)
 8001208:	4013      	ands	r3, r2
 800120a:	0852      	lsrs	r2, r2, #1
 800120c:	400a      	ands	r2, r1
 800120e:	431a      	orrs	r2, r3
 8001210:	0013      	movs	r3, r2
 8001212:	4694      	mov	ip, r2
 8001214:	075b      	lsls	r3, r3, #29
 8001216:	d004      	beq.n	8001222 <__aeabi_fsub+0x31e>
 8001218:	230f      	movs	r3, #15
 800121a:	4013      	ands	r3, r2
 800121c:	2b04      	cmp	r3, #4
 800121e:	d000      	beq.n	8001222 <__aeabi_fsub+0x31e>
 8001220:	e6bf      	b.n	8000fa2 <__aeabi_fsub+0x9e>
 8001222:	4663      	mov	r3, ip
 8001224:	015b      	lsls	r3, r3, #5
 8001226:	d500      	bpl.n	800122a <__aeabi_fsub+0x326>
 8001228:	e6c2      	b.n	8000fb0 <__aeabi_fsub+0xac>
 800122a:	4663      	mov	r3, ip
 800122c:	08df      	lsrs	r7, r3, #3
 800122e:	002b      	movs	r3, r5
 8001230:	e6e3      	b.n	8000ffa <__aeabi_fsub+0xf6>
 8001232:	1b53      	subs	r3, r2, r5
 8001234:	2d00      	cmp	r5, #0
 8001236:	d100      	bne.n	800123a <__aeabi_fsub+0x336>
 8001238:	e6f4      	b.n	8001024 <__aeabi_fsub+0x120>
 800123a:	2080      	movs	r0, #128	@ 0x80
 800123c:	4664      	mov	r4, ip
 800123e:	04c0      	lsls	r0, r0, #19
 8001240:	4304      	orrs	r4, r0
 8001242:	46a4      	mov	ip, r4
 8001244:	0034      	movs	r4, r6
 8001246:	2001      	movs	r0, #1
 8001248:	2b1b      	cmp	r3, #27
 800124a:	dc09      	bgt.n	8001260 <__aeabi_fsub+0x35c>
 800124c:	2520      	movs	r5, #32
 800124e:	4660      	mov	r0, ip
 8001250:	40d8      	lsrs	r0, r3
 8001252:	1aeb      	subs	r3, r5, r3
 8001254:	4665      	mov	r5, ip
 8001256:	409d      	lsls	r5, r3
 8001258:	002b      	movs	r3, r5
 800125a:	1e5d      	subs	r5, r3, #1
 800125c:	41ab      	sbcs	r3, r5
 800125e:	4318      	orrs	r0, r3
 8001260:	1a0b      	subs	r3, r1, r0
 8001262:	469c      	mov	ip, r3
 8001264:	0015      	movs	r5, r2
 8001266:	e680      	b.n	8000f6a <__aeabi_fsub+0x66>
 8001268:	fbffffff 	.word	0xfbffffff
 800126c:	7dffffff 	.word	0x7dffffff
 8001270:	22fe      	movs	r2, #254	@ 0xfe
 8001272:	1c6b      	adds	r3, r5, #1
 8001274:	4213      	tst	r3, r2
 8001276:	d0a3      	beq.n	80011c0 <__aeabi_fsub+0x2bc>
 8001278:	2bff      	cmp	r3, #255	@ 0xff
 800127a:	d100      	bne.n	800127e <__aeabi_fsub+0x37a>
 800127c:	e69c      	b.n	8000fb8 <__aeabi_fsub+0xb4>
 800127e:	4461      	add	r1, ip
 8001280:	0849      	lsrs	r1, r1, #1
 8001282:	074a      	lsls	r2, r1, #29
 8001284:	d049      	beq.n	800131a <__aeabi_fsub+0x416>
 8001286:	220f      	movs	r2, #15
 8001288:	400a      	ands	r2, r1
 800128a:	2a04      	cmp	r2, #4
 800128c:	d045      	beq.n	800131a <__aeabi_fsub+0x416>
 800128e:	1d0a      	adds	r2, r1, #4
 8001290:	4694      	mov	ip, r2
 8001292:	e6ad      	b.n	8000ff0 <__aeabi_fsub+0xec>
 8001294:	2d00      	cmp	r5, #0
 8001296:	d100      	bne.n	800129a <__aeabi_fsub+0x396>
 8001298:	e776      	b.n	8001188 <__aeabi_fsub+0x284>
 800129a:	e68d      	b.n	8000fb8 <__aeabi_fsub+0xb4>
 800129c:	0034      	movs	r4, r6
 800129e:	20ff      	movs	r0, #255	@ 0xff
 80012a0:	2200      	movs	r2, #0
 80012a2:	e68b      	b.n	8000fbc <__aeabi_fsub+0xb8>
 80012a4:	4663      	mov	r3, ip
 80012a6:	2401      	movs	r4, #1
 80012a8:	1acf      	subs	r7, r1, r3
 80012aa:	4034      	ands	r4, r6
 80012ac:	e664      	b.n	8000f78 <__aeabi_fsub+0x74>
 80012ae:	4461      	add	r1, ip
 80012b0:	014b      	lsls	r3, r1, #5
 80012b2:	d56d      	bpl.n	8001390 <__aeabi_fsub+0x48c>
 80012b4:	0848      	lsrs	r0, r1, #1
 80012b6:	4944      	ldr	r1, [pc, #272]	@ (80013c8 <__aeabi_fsub+0x4c4>)
 80012b8:	4001      	ands	r1, r0
 80012ba:	0743      	lsls	r3, r0, #29
 80012bc:	d02c      	beq.n	8001318 <__aeabi_fsub+0x414>
 80012be:	230f      	movs	r3, #15
 80012c0:	4003      	ands	r3, r0
 80012c2:	2b04      	cmp	r3, #4
 80012c4:	d028      	beq.n	8001318 <__aeabi_fsub+0x414>
 80012c6:	1d0b      	adds	r3, r1, #4
 80012c8:	469c      	mov	ip, r3
 80012ca:	2302      	movs	r3, #2
 80012cc:	e690      	b.n	8000ff0 <__aeabi_fsub+0xec>
 80012ce:	2900      	cmp	r1, #0
 80012d0:	d100      	bne.n	80012d4 <__aeabi_fsub+0x3d0>
 80012d2:	e72b      	b.n	800112c <__aeabi_fsub+0x228>
 80012d4:	2380      	movs	r3, #128	@ 0x80
 80012d6:	03db      	lsls	r3, r3, #15
 80012d8:	429f      	cmp	r7, r3
 80012da:	d200      	bcs.n	80012de <__aeabi_fsub+0x3da>
 80012dc:	e726      	b.n	800112c <__aeabi_fsub+0x228>
 80012de:	4298      	cmp	r0, r3
 80012e0:	d300      	bcc.n	80012e4 <__aeabi_fsub+0x3e0>
 80012e2:	e723      	b.n	800112c <__aeabi_fsub+0x228>
 80012e4:	2401      	movs	r4, #1
 80012e6:	4034      	ands	r4, r6
 80012e8:	0007      	movs	r7, r0
 80012ea:	e71f      	b.n	800112c <__aeabi_fsub+0x228>
 80012ec:	0034      	movs	r4, r6
 80012ee:	468c      	mov	ip, r1
 80012f0:	e67e      	b.n	8000ff0 <__aeabi_fsub+0xec>
 80012f2:	2301      	movs	r3, #1
 80012f4:	08cf      	lsrs	r7, r1, #3
 80012f6:	e680      	b.n	8000ffa <__aeabi_fsub+0xf6>
 80012f8:	2300      	movs	r3, #0
 80012fa:	e67e      	b.n	8000ffa <__aeabi_fsub+0xf6>
 80012fc:	2020      	movs	r0, #32
 80012fe:	4665      	mov	r5, ip
 8001300:	1b80      	subs	r0, r0, r6
 8001302:	4085      	lsls	r5, r0
 8001304:	4663      	mov	r3, ip
 8001306:	0028      	movs	r0, r5
 8001308:	40f3      	lsrs	r3, r6
 800130a:	1e45      	subs	r5, r0, #1
 800130c:	41a8      	sbcs	r0, r5
 800130e:	4303      	orrs	r3, r0
 8001310:	469c      	mov	ip, r3
 8001312:	0015      	movs	r5, r2
 8001314:	448c      	add	ip, r1
 8001316:	e76d      	b.n	80011f4 <__aeabi_fsub+0x2f0>
 8001318:	2302      	movs	r3, #2
 800131a:	08cf      	lsrs	r7, r1, #3
 800131c:	e66d      	b.n	8000ffa <__aeabi_fsub+0xf6>
 800131e:	1b0f      	subs	r7, r1, r4
 8001320:	017b      	lsls	r3, r7, #5
 8001322:	d528      	bpl.n	8001376 <__aeabi_fsub+0x472>
 8001324:	01bf      	lsls	r7, r7, #6
 8001326:	09bf      	lsrs	r7, r7, #6
 8001328:	0038      	movs	r0, r7
 800132a:	f000 f8d5 	bl	80014d8 <__clzsi2>
 800132e:	003b      	movs	r3, r7
 8001330:	3805      	subs	r0, #5
 8001332:	4083      	lsls	r3, r0
 8001334:	0034      	movs	r4, r6
 8001336:	2501      	movs	r5, #1
 8001338:	e6ca      	b.n	80010d0 <__aeabi_fsub+0x1cc>
 800133a:	2900      	cmp	r1, #0
 800133c:	d100      	bne.n	8001340 <__aeabi_fsub+0x43c>
 800133e:	e6b5      	b.n	80010ac <__aeabi_fsub+0x1a8>
 8001340:	2401      	movs	r4, #1
 8001342:	0007      	movs	r7, r0
 8001344:	4034      	ands	r4, r6
 8001346:	e658      	b.n	8000ffa <__aeabi_fsub+0xf6>
 8001348:	4663      	mov	r3, ip
 800134a:	2b00      	cmp	r3, #0
 800134c:	d100      	bne.n	8001350 <__aeabi_fsub+0x44c>
 800134e:	e6e9      	b.n	8001124 <__aeabi_fsub+0x220>
 8001350:	2900      	cmp	r1, #0
 8001352:	d100      	bne.n	8001356 <__aeabi_fsub+0x452>
 8001354:	e6ea      	b.n	800112c <__aeabi_fsub+0x228>
 8001356:	2380      	movs	r3, #128	@ 0x80
 8001358:	03db      	lsls	r3, r3, #15
 800135a:	429f      	cmp	r7, r3
 800135c:	d200      	bcs.n	8001360 <__aeabi_fsub+0x45c>
 800135e:	e6e5      	b.n	800112c <__aeabi_fsub+0x228>
 8001360:	4298      	cmp	r0, r3
 8001362:	d300      	bcc.n	8001366 <__aeabi_fsub+0x462>
 8001364:	e6e2      	b.n	800112c <__aeabi_fsub+0x228>
 8001366:	0007      	movs	r7, r0
 8001368:	e6e0      	b.n	800112c <__aeabi_fsub+0x228>
 800136a:	2900      	cmp	r1, #0
 800136c:	d100      	bne.n	8001370 <__aeabi_fsub+0x46c>
 800136e:	e69e      	b.n	80010ae <__aeabi_fsub+0x1aa>
 8001370:	2300      	movs	r3, #0
 8001372:	08cf      	lsrs	r7, r1, #3
 8001374:	e641      	b.n	8000ffa <__aeabi_fsub+0xf6>
 8001376:	0034      	movs	r4, r6
 8001378:	2301      	movs	r3, #1
 800137a:	08ff      	lsrs	r7, r7, #3
 800137c:	e63d      	b.n	8000ffa <__aeabi_fsub+0xf6>
 800137e:	2f00      	cmp	r7, #0
 8001380:	d100      	bne.n	8001384 <__aeabi_fsub+0x480>
 8001382:	e693      	b.n	80010ac <__aeabi_fsub+0x1a8>
 8001384:	2300      	movs	r3, #0
 8001386:	08ff      	lsrs	r7, r7, #3
 8001388:	e637      	b.n	8000ffa <__aeabi_fsub+0xf6>
 800138a:	2300      	movs	r3, #0
 800138c:	08d7      	lsrs	r7, r2, #3
 800138e:	e634      	b.n	8000ffa <__aeabi_fsub+0xf6>
 8001390:	2301      	movs	r3, #1
 8001392:	08cf      	lsrs	r7, r1, #3
 8001394:	e631      	b.n	8000ffa <__aeabi_fsub+0xf6>
 8001396:	2280      	movs	r2, #128	@ 0x80
 8001398:	000b      	movs	r3, r1
 800139a:	04d2      	lsls	r2, r2, #19
 800139c:	2001      	movs	r0, #1
 800139e:	4013      	ands	r3, r2
 80013a0:	4211      	tst	r1, r2
 80013a2:	d000      	beq.n	80013a6 <__aeabi_fsub+0x4a2>
 80013a4:	e6ae      	b.n	8001104 <__aeabi_fsub+0x200>
 80013a6:	08cf      	lsrs	r7, r1, #3
 80013a8:	e627      	b.n	8000ffa <__aeabi_fsub+0xf6>
 80013aa:	2b00      	cmp	r3, #0
 80013ac:	d100      	bne.n	80013b0 <__aeabi_fsub+0x4ac>
 80013ae:	e75f      	b.n	8001270 <__aeabi_fsub+0x36c>
 80013b0:	1b56      	subs	r6, r2, r5
 80013b2:	2d00      	cmp	r5, #0
 80013b4:	d101      	bne.n	80013ba <__aeabi_fsub+0x4b6>
 80013b6:	0033      	movs	r3, r6
 80013b8:	e6e7      	b.n	800118a <__aeabi_fsub+0x286>
 80013ba:	2380      	movs	r3, #128	@ 0x80
 80013bc:	4660      	mov	r0, ip
 80013be:	04db      	lsls	r3, r3, #19
 80013c0:	4318      	orrs	r0, r3
 80013c2:	4684      	mov	ip, r0
 80013c4:	e6eb      	b.n	800119e <__aeabi_fsub+0x29a>
 80013c6:	46c0      	nop			@ (mov r8, r8)
 80013c8:	7dffffff 	.word	0x7dffffff

080013cc <__aeabi_fcmpun>:
 80013cc:	0243      	lsls	r3, r0, #9
 80013ce:	024a      	lsls	r2, r1, #9
 80013d0:	0040      	lsls	r0, r0, #1
 80013d2:	0049      	lsls	r1, r1, #1
 80013d4:	0a5b      	lsrs	r3, r3, #9
 80013d6:	0a52      	lsrs	r2, r2, #9
 80013d8:	0e09      	lsrs	r1, r1, #24
 80013da:	0e00      	lsrs	r0, r0, #24
 80013dc:	28ff      	cmp	r0, #255	@ 0xff
 80013de:	d006      	beq.n	80013ee <__aeabi_fcmpun+0x22>
 80013e0:	2000      	movs	r0, #0
 80013e2:	29ff      	cmp	r1, #255	@ 0xff
 80013e4:	d102      	bne.n	80013ec <__aeabi_fcmpun+0x20>
 80013e6:	1e53      	subs	r3, r2, #1
 80013e8:	419a      	sbcs	r2, r3
 80013ea:	0010      	movs	r0, r2
 80013ec:	4770      	bx	lr
 80013ee:	38fe      	subs	r0, #254	@ 0xfe
 80013f0:	2b00      	cmp	r3, #0
 80013f2:	d1fb      	bne.n	80013ec <__aeabi_fcmpun+0x20>
 80013f4:	e7f4      	b.n	80013e0 <__aeabi_fcmpun+0x14>
 80013f6:	46c0      	nop			@ (mov r8, r8)

080013f8 <__aeabi_f2iz>:
 80013f8:	0241      	lsls	r1, r0, #9
 80013fa:	0042      	lsls	r2, r0, #1
 80013fc:	0fc3      	lsrs	r3, r0, #31
 80013fe:	0a49      	lsrs	r1, r1, #9
 8001400:	2000      	movs	r0, #0
 8001402:	0e12      	lsrs	r2, r2, #24
 8001404:	2a7e      	cmp	r2, #126	@ 0x7e
 8001406:	dd03      	ble.n	8001410 <__aeabi_f2iz+0x18>
 8001408:	2a9d      	cmp	r2, #157	@ 0x9d
 800140a:	dd02      	ble.n	8001412 <__aeabi_f2iz+0x1a>
 800140c:	4a09      	ldr	r2, [pc, #36]	@ (8001434 <__aeabi_f2iz+0x3c>)
 800140e:	1898      	adds	r0, r3, r2
 8001410:	4770      	bx	lr
 8001412:	2080      	movs	r0, #128	@ 0x80
 8001414:	0400      	lsls	r0, r0, #16
 8001416:	4301      	orrs	r1, r0
 8001418:	2a95      	cmp	r2, #149	@ 0x95
 800141a:	dc07      	bgt.n	800142c <__aeabi_f2iz+0x34>
 800141c:	2096      	movs	r0, #150	@ 0x96
 800141e:	1a82      	subs	r2, r0, r2
 8001420:	40d1      	lsrs	r1, r2
 8001422:	4248      	negs	r0, r1
 8001424:	2b00      	cmp	r3, #0
 8001426:	d1f3      	bne.n	8001410 <__aeabi_f2iz+0x18>
 8001428:	0008      	movs	r0, r1
 800142a:	e7f1      	b.n	8001410 <__aeabi_f2iz+0x18>
 800142c:	3a96      	subs	r2, #150	@ 0x96
 800142e:	4091      	lsls	r1, r2
 8001430:	e7f7      	b.n	8001422 <__aeabi_f2iz+0x2a>
 8001432:	46c0      	nop			@ (mov r8, r8)
 8001434:	7fffffff 	.word	0x7fffffff

08001438 <__aeabi_i2f>:
 8001438:	b570      	push	{r4, r5, r6, lr}
 800143a:	2800      	cmp	r0, #0
 800143c:	d012      	beq.n	8001464 <__aeabi_i2f+0x2c>
 800143e:	17c3      	asrs	r3, r0, #31
 8001440:	18c5      	adds	r5, r0, r3
 8001442:	405d      	eors	r5, r3
 8001444:	0fc4      	lsrs	r4, r0, #31
 8001446:	0028      	movs	r0, r5
 8001448:	f000 f846 	bl	80014d8 <__clzsi2>
 800144c:	239e      	movs	r3, #158	@ 0x9e
 800144e:	1a1b      	subs	r3, r3, r0
 8001450:	2b96      	cmp	r3, #150	@ 0x96
 8001452:	dc0f      	bgt.n	8001474 <__aeabi_i2f+0x3c>
 8001454:	2808      	cmp	r0, #8
 8001456:	d038      	beq.n	80014ca <__aeabi_i2f+0x92>
 8001458:	3808      	subs	r0, #8
 800145a:	4085      	lsls	r5, r0
 800145c:	026d      	lsls	r5, r5, #9
 800145e:	0a6d      	lsrs	r5, r5, #9
 8001460:	b2d8      	uxtb	r0, r3
 8001462:	e002      	b.n	800146a <__aeabi_i2f+0x32>
 8001464:	2400      	movs	r4, #0
 8001466:	2000      	movs	r0, #0
 8001468:	2500      	movs	r5, #0
 800146a:	05c0      	lsls	r0, r0, #23
 800146c:	4328      	orrs	r0, r5
 800146e:	07e4      	lsls	r4, r4, #31
 8001470:	4320      	orrs	r0, r4
 8001472:	bd70      	pop	{r4, r5, r6, pc}
 8001474:	2b99      	cmp	r3, #153	@ 0x99
 8001476:	dc14      	bgt.n	80014a2 <__aeabi_i2f+0x6a>
 8001478:	1f42      	subs	r2, r0, #5
 800147a:	4095      	lsls	r5, r2
 800147c:	002a      	movs	r2, r5
 800147e:	4915      	ldr	r1, [pc, #84]	@ (80014d4 <__aeabi_i2f+0x9c>)
 8001480:	4011      	ands	r1, r2
 8001482:	0755      	lsls	r5, r2, #29
 8001484:	d01c      	beq.n	80014c0 <__aeabi_i2f+0x88>
 8001486:	250f      	movs	r5, #15
 8001488:	402a      	ands	r2, r5
 800148a:	2a04      	cmp	r2, #4
 800148c:	d018      	beq.n	80014c0 <__aeabi_i2f+0x88>
 800148e:	3104      	adds	r1, #4
 8001490:	08ca      	lsrs	r2, r1, #3
 8001492:	0149      	lsls	r1, r1, #5
 8001494:	d515      	bpl.n	80014c2 <__aeabi_i2f+0x8a>
 8001496:	239f      	movs	r3, #159	@ 0x9f
 8001498:	0252      	lsls	r2, r2, #9
 800149a:	1a18      	subs	r0, r3, r0
 800149c:	0a55      	lsrs	r5, r2, #9
 800149e:	b2c0      	uxtb	r0, r0
 80014a0:	e7e3      	b.n	800146a <__aeabi_i2f+0x32>
 80014a2:	2205      	movs	r2, #5
 80014a4:	0029      	movs	r1, r5
 80014a6:	1a12      	subs	r2, r2, r0
 80014a8:	40d1      	lsrs	r1, r2
 80014aa:	0002      	movs	r2, r0
 80014ac:	321b      	adds	r2, #27
 80014ae:	4095      	lsls	r5, r2
 80014b0:	002a      	movs	r2, r5
 80014b2:	1e55      	subs	r5, r2, #1
 80014b4:	41aa      	sbcs	r2, r5
 80014b6:	430a      	orrs	r2, r1
 80014b8:	4906      	ldr	r1, [pc, #24]	@ (80014d4 <__aeabi_i2f+0x9c>)
 80014ba:	4011      	ands	r1, r2
 80014bc:	0755      	lsls	r5, r2, #29
 80014be:	d1e2      	bne.n	8001486 <__aeabi_i2f+0x4e>
 80014c0:	08ca      	lsrs	r2, r1, #3
 80014c2:	0252      	lsls	r2, r2, #9
 80014c4:	0a55      	lsrs	r5, r2, #9
 80014c6:	b2d8      	uxtb	r0, r3
 80014c8:	e7cf      	b.n	800146a <__aeabi_i2f+0x32>
 80014ca:	026d      	lsls	r5, r5, #9
 80014cc:	0a6d      	lsrs	r5, r5, #9
 80014ce:	308e      	adds	r0, #142	@ 0x8e
 80014d0:	e7cb      	b.n	800146a <__aeabi_i2f+0x32>
 80014d2:	46c0      	nop			@ (mov r8, r8)
 80014d4:	fbffffff 	.word	0xfbffffff

080014d8 <__clzsi2>:
 80014d8:	211c      	movs	r1, #28
 80014da:	2301      	movs	r3, #1
 80014dc:	041b      	lsls	r3, r3, #16
 80014de:	4298      	cmp	r0, r3
 80014e0:	d301      	bcc.n	80014e6 <__clzsi2+0xe>
 80014e2:	0c00      	lsrs	r0, r0, #16
 80014e4:	3910      	subs	r1, #16
 80014e6:	0a1b      	lsrs	r3, r3, #8
 80014e8:	4298      	cmp	r0, r3
 80014ea:	d301      	bcc.n	80014f0 <__clzsi2+0x18>
 80014ec:	0a00      	lsrs	r0, r0, #8
 80014ee:	3908      	subs	r1, #8
 80014f0:	091b      	lsrs	r3, r3, #4
 80014f2:	4298      	cmp	r0, r3
 80014f4:	d301      	bcc.n	80014fa <__clzsi2+0x22>
 80014f6:	0900      	lsrs	r0, r0, #4
 80014f8:	3904      	subs	r1, #4
 80014fa:	a202      	add	r2, pc, #8	@ (adr r2, 8001504 <__clzsi2+0x2c>)
 80014fc:	5c10      	ldrb	r0, [r2, r0]
 80014fe:	1840      	adds	r0, r0, r1
 8001500:	4770      	bx	lr
 8001502:	46c0      	nop			@ (mov r8, r8)
 8001504:	02020304 	.word	0x02020304
 8001508:	01010101 	.word	0x01010101
	...

08001514 <fire_pyro_channel.part.0>:
 8001514:	b510      	push	{r4, lr}
 8001516:	24a0      	movs	r4, #160	@ 0xa0
 8001518:	05e4      	lsls	r4, r4, #23
 800151a:	2201      	movs	r2, #1
 800151c:	2104      	movs	r1, #4
 800151e:	0020      	movs	r0, r4
 8001520:	f000 ff30 	bl	8002384 <HAL_GPIO_WritePin>
 8001524:	20fa      	movs	r0, #250	@ 0xfa
 8001526:	0080      	lsls	r0, r0, #2
 8001528:	f000 fe1e 	bl	8002168 <HAL_Delay>
 800152c:	2200      	movs	r2, #0
 800152e:	2104      	movs	r1, #4
 8001530:	0020      	movs	r0, r4
 8001532:	f000 ff27 	bl	8002384 <HAL_GPIO_WritePin>
 8001536:	bd10      	pop	{r4, pc}

08001538 <fire_pyro_channel>:
 8001538:	b510      	push	{r4, lr}
 800153a:	0004      	movs	r4, r0
 800153c:	2801      	cmp	r0, #1
 800153e:	d110      	bne.n	8001562 <fire_pyro_channel+0x2a>
 8001540:	0002      	movs	r2, r0
 8001542:	0001      	movs	r1, r0
 8001544:	20a0      	movs	r0, #160	@ 0xa0
 8001546:	05c0      	lsls	r0, r0, #23
 8001548:	f000 ff1c 	bl	8002384 <HAL_GPIO_WritePin>
 800154c:	20fa      	movs	r0, #250	@ 0xfa
 800154e:	0080      	lsls	r0, r0, #2
 8001550:	f000 fe0a 	bl	8002168 <HAL_Delay>
 8001554:	20a0      	movs	r0, #160	@ 0xa0
 8001556:	2200      	movs	r2, #0
 8001558:	0021      	movs	r1, r4
 800155a:	05c0      	lsls	r0, r0, #23
 800155c:	f000 ff12 	bl	8002384 <HAL_GPIO_WritePin>
 8001560:	bd10      	pop	{r4, pc}
 8001562:	2802      	cmp	r0, #2
 8001564:	d1fc      	bne.n	8001560 <fire_pyro_channel+0x28>
 8001566:	f7ff ffd5 	bl	8001514 <fire_pyro_channel.part.0>
 800156a:	e7f9      	b.n	8001560 <fire_pyro_channel+0x28>

0800156c <run_preflight_and_launch_detection>:
 800156c:	20a0      	movs	r0, #160	@ 0xa0
 800156e:	b5f8      	push	{r3, r4, r5, r6, r7, lr}
 8001570:	2108      	movs	r1, #8
 8001572:	05c0      	lsls	r0, r0, #23
 8001574:	f000 ff00 	bl	8002378 <HAL_GPIO_ReadPin>
 8001578:	0004      	movs	r4, r0
 800157a:	20a0      	movs	r0, #160	@ 0xa0
 800157c:	2110      	movs	r1, #16
 800157e:	05c0      	lsls	r0, r0, #23
 8001580:	f000 fefa 	bl	8002378 <HAL_GPIO_ReadPin>
 8001584:	2c00      	cmp	r4, #0
 8001586:	d001      	beq.n	800158c <run_preflight_and_launch_detection+0x20>
 8001588:	2800      	cmp	r0, #0
 800158a:	d11f      	bne.n	80015cc <run_preflight_and_launch_detection+0x60>
 800158c:	2496      	movs	r4, #150	@ 0x96
 800158e:	2596      	movs	r5, #150	@ 0x96
 8001590:	0064      	lsls	r4, r4, #1
 8001592:	0028      	movs	r0, r5
 8001594:	f000 f952 	bl	800183c <Buzzer_Start>
 8001598:	0020      	movs	r0, r4
 800159a:	f000 fde5 	bl	8002168 <HAL_Delay>
 800159e:	f000 f969 	bl	8001874 <Buzzer_Update>
 80015a2:	0028      	movs	r0, r5
 80015a4:	f000 f94a 	bl	800183c <Buzzer_Start>
 80015a8:	0020      	movs	r0, r4
 80015aa:	f000 fddd 	bl	8002168 <HAL_Delay>
 80015ae:	f000 f961 	bl	8001874 <Buzzer_Update>
 80015b2:	0028      	movs	r0, r5
 80015b4:	f000 f942 	bl	800183c <Buzzer_Start>
 80015b8:	0020      	movs	r0, r4
 80015ba:	f000 fdd5 	bl	8002168 <HAL_Delay>
 80015be:	f000 f959 	bl	8001874 <Buzzer_Update>
 80015c2:	20fa      	movs	r0, #250	@ 0xfa
 80015c4:	0080      	lsls	r0, r0, #2
 80015c6:	f000 fdcf 	bl	8002168 <HAL_Delay>
 80015ca:	e7e2      	b.n	8001592 <run_preflight_and_launch_detection+0x26>
 80015cc:	4828      	ldr	r0, [pc, #160]	@ (8001670 <run_preflight_and_launch_detection+0x104>)
 80015ce:	f000 fdcb 	bl	8002168 <HAL_Delay>
 80015d2:	20fa      	movs	r0, #250	@ 0xfa
 80015d4:	0080      	lsls	r0, r0, #2
 80015d6:	f000 f931 	bl	800183c <Buzzer_Start>
 80015da:	20fa      	movs	r0, #250	@ 0xfa
 80015dc:	0080      	lsls	r0, r0, #2
 80015de:	f000 fdc3 	bl	8002168 <HAL_Delay>
 80015e2:	f000 f947 	bl	8001874 <Buzzer_Update>
 80015e6:	2201      	movs	r2, #1
 80015e8:	2632      	movs	r6, #50	@ 0x32
 80015ea:	2400      	movs	r4, #0
 80015ec:	4b21      	ldr	r3, [pc, #132]	@ (8001674 <run_preflight_and_launch_detection+0x108>)
 80015ee:	701a      	strb	r2, [r3, #0]
 80015f0:	4d21      	ldr	r5, [pc, #132]	@ (8001678 <run_preflight_and_launch_detection+0x10c>)
 80015f2:	2104      	movs	r1, #4
 80015f4:	0028      	movs	r0, r5
 80015f6:	f000 fb6d 	bl	8001cd4 <ms5607_read_values>
 80015fa:	2800      	cmp	r0, #0
 80015fc:	d134      	bne.n	8001668 <run_preflight_and_launch_detection+0xfc>
 80015fe:	69a8      	ldr	r0, [r5, #24]
 8001600:	f7ff ff1a 	bl	8001438 <__aeabi_i2f>
 8001604:	f000 fc84 	bl	8001f10 <toAltitude>
 8001608:	1c01      	adds	r1, r0, #0
 800160a:	1c20      	adds	r0, r4, #0
 800160c:	f7fe ff60 	bl	80004d0 <__aeabi_fadd>
 8001610:	3e01      	subs	r6, #1
 8001612:	1c04      	adds	r4, r0, #0
 8001614:	2032      	movs	r0, #50	@ 0x32
 8001616:	f000 fda7 	bl	8002168 <HAL_Delay>
 800161a:	2e00      	cmp	r6, #0
 800161c:	d1e8      	bne.n	80015f0 <run_preflight_and_launch_detection+0x84>
 800161e:	4917      	ldr	r1, [pc, #92]	@ (800167c <run_preflight_and_launch_detection+0x110>)
 8001620:	1c20      	adds	r0, r4, #0
 8001622:	f7ff f947 	bl	80008b4 <__aeabi_fdiv>
 8001626:	1c06      	adds	r6, r0, #0
 8001628:	f000 f924 	bl	8001874 <Buzzer_Update>
 800162c:	2104      	movs	r1, #4
 800162e:	0028      	movs	r0, r5
 8001630:	f000 fb50 	bl	8001cd4 <ms5607_read_values>
 8001634:	1e04      	subs	r4, r0, #0
 8001636:	d1f7      	bne.n	8001628 <run_preflight_and_launch_detection+0xbc>
 8001638:	69a8      	ldr	r0, [r5, #24]
 800163a:	f7ff fefd 	bl	8001438 <__aeabi_i2f>
 800163e:	f000 fc67 	bl	8001f10 <toAltitude>
 8001642:	490f      	ldr	r1, [pc, #60]	@ (8001680 <run_preflight_and_launch_detection+0x114>)
 8001644:	1c07      	adds	r7, r0, #0
 8001646:	1c30      	adds	r0, r6, #0
 8001648:	f7fe ff42 	bl	80004d0 <__aeabi_fadd>
 800164c:	1c39      	adds	r1, r7, #0
 800164e:	f7fe fee9 	bl	8000424 <__aeabi_fcmplt>
 8001652:	2800      	cmp	r0, #0
 8001654:	d109      	bne.n	800166a <run_preflight_and_launch_detection+0xfe>
 8001656:	3014      	adds	r0, #20
 8001658:	f000 f8f0 	bl	800183c <Buzzer_Start>
 800165c:	2014      	movs	r0, #20
 800165e:	f000 fd83 	bl	8002168 <HAL_Delay>
 8001662:	f000 f907 	bl	8001874 <Buzzer_Update>
 8001666:	e7df      	b.n	8001628 <run_preflight_and_launch_detection+0xbc>
 8001668:	2401      	movs	r4, #1
 800166a:	0020      	movs	r0, r4
 800166c:	bdf8      	pop	{r3, r4, r5, r6, r7, pc}
 800166e:	46c0      	nop			@ (mov r8, r8)
 8001670:	00007530 	.word	0x00007530
 8001674:	20000078 	.word	0x20000078
 8001678:	20000088 	.word	0x20000088
 800167c:	42480000 	.word	0x42480000
 8001680:	4273d70a 	.word	0x4273d70a

08001684 <AltimeterStateMachine>:
 8001684:	b5f0      	push	{r4, r5, r6, r7, lr}
 8001686:	4863      	ldr	r0, [pc, #396]	@ (8001814 <AltimeterStateMachine+0x190>)
 8001688:	b091      	sub	sp, #68	@ 0x44
 800168a:	f000 f8d7 	bl	800183c <Buzzer_Start>
 800168e:	20fa      	movs	r0, #250	@ 0xfa
 8001690:	0040      	lsls	r0, r0, #1
 8001692:	f000 fd69 	bl	8002168 <HAL_Delay>
 8001696:	f000 f8ed 	bl	8001874 <Buzzer_Update>
 800169a:	20c8      	movs	r0, #200	@ 0xc8
 800169c:	f000 fd64 	bl	8002168 <HAL_Delay>
 80016a0:	21fa      	movs	r1, #250	@ 0xfa
 80016a2:	4b5d      	ldr	r3, [pc, #372]	@ (8001818 <AltimeterStateMachine+0x194>)
 80016a4:	0049      	lsls	r1, r1, #1
 80016a6:	6818      	ldr	r0, [r3, #0]
 80016a8:	f000 f949 	bl	800193e <buzz_out_altitude>
 80016ac:	22ee      	movs	r2, #238	@ 0xee
 80016ae:	495b      	ldr	r1, [pc, #364]	@ (800181c <AltimeterStateMachine+0x198>)
 80016b0:	485b      	ldr	r0, [pc, #364]	@ (8001820 <AltimeterStateMachine+0x19c>)
 80016b2:	f000 facd 	bl	8001c50 <ms5607_init>
 80016b6:	4d5b      	ldr	r5, [pc, #364]	@ (8001824 <AltimeterStateMachine+0x1a0>)
 80016b8:	2800      	cmp	r0, #0
 80016ba:	d000      	beq.n	80016be <AltimeterStateMachine+0x3a>
 80016bc:	e7fe      	b.n	80016bc <AltimeterStateMachine+0x38>
 80016be:	f7ff ff55 	bl	800156c <run_preflight_and_launch_detection>
 80016c2:	1e04      	subs	r4, r0, #0
 80016c4:	d000      	beq.n	80016c8 <AltimeterStateMachine+0x44>
 80016c6:	e7fe      	b.n	80016c6 <AltimeterStateMachine+0x42>
 80016c8:	2302      	movs	r3, #2
 80016ca:	702b      	strb	r3, [r5, #0]
 80016cc:	f000 fd46 	bl	800215c <HAL_GetTick>
 80016d0:	0027      	movs	r7, r4
 80016d2:	2600      	movs	r6, #0
 80016d4:	9005      	str	r0, [sp, #20]
 80016d6:	2228      	movs	r2, #40	@ 0x28
 80016d8:	0021      	movs	r1, r4
 80016da:	a806      	add	r0, sp, #24
 80016dc:	f002 f9b0 	bl	8003a40 <memset>
 80016e0:	9403      	str	r4, [sp, #12]
 80016e2:	9402      	str	r4, [sp, #8]
 80016e4:	9400      	str	r4, [sp, #0]
 80016e6:	f000 f8c5 	bl	8001874 <Buzzer_Update>
 80016ea:	4d4d      	ldr	r5, [pc, #308]	@ (8001820 <AltimeterStateMachine+0x19c>)
 80016ec:	2104      	movs	r1, #4
 80016ee:	0028      	movs	r0, r5
 80016f0:	f000 faf0 	bl	8001cd4 <ms5607_read_values>
 80016f4:	2800      	cmp	r0, #0
 80016f6:	d127      	bne.n	8001748 <AltimeterStateMachine+0xc4>
 80016f8:	69a8      	ldr	r0, [r5, #24]
 80016fa:	f7ff fe9d 	bl	8001438 <__aeabi_i2f>
 80016fe:	f000 fc07 	bl	8001f10 <toAltitude>
 8001702:	1c05      	adds	r5, r0, #0
 8001704:	00bb      	lsls	r3, r7, #2
 8001706:	aa06      	add	r2, sp, #24
 8001708:	3701      	adds	r7, #1
 800170a:	509d      	str	r5, [r3, r2]
 800170c:	2f0a      	cmp	r7, #10
 800170e:	d01d      	beq.n	800174c <AltimeterStateMachine+0xc8>
 8001710:	2c00      	cmp	r4, #0
 8001712:	d01d      	beq.n	8001750 <AltimeterStateMachine+0xcc>
 8001714:	2400      	movs	r4, #0
 8001716:	2000      	movs	r0, #0
 8001718:	00a3      	lsls	r3, r4, #2
 800171a:	aa06      	add	r2, sp, #24
 800171c:	5899      	ldr	r1, [r3, r2]
 800171e:	3401      	adds	r4, #1
 8001720:	f7fe fed6 	bl	80004d0 <__aeabi_fadd>
 8001724:	2c0a      	cmp	r4, #10
 8001726:	d1f7      	bne.n	8001718 <AltimeterStateMachine+0x94>
 8001728:	493f      	ldr	r1, [pc, #252]	@ (8001828 <AltimeterStateMachine+0x1a4>)
 800172a:	f7ff f8c3 	bl	80008b4 <__aeabi_fdiv>
 800172e:	3c09      	subs	r4, #9
 8001730:	9001      	str	r0, [sp, #4]
 8001732:	4b3c      	ldr	r3, [pc, #240]	@ (8001824 <AltimeterStateMachine+0x1a0>)
 8001734:	7818      	ldrb	r0, [r3, #0]
 8001736:	9304      	str	r3, [sp, #16]
 8001738:	3802      	subs	r0, #2
 800173a:	2804      	cmp	r0, #4
 800173c:	d816      	bhi.n	800176c <AltimeterStateMachine+0xe8>
 800173e:	f7fe fcdf 	bl	8000100 <__gnu_thumb1_case_uqi>
 8001742:	190a      	.short	0x190a
 8001744:	543f      	.short	0x543f
 8001746:	65          	.byte	0x65
 8001747:	00          	.byte	0x00
 8001748:	2500      	movs	r5, #0
 800174a:	e7db      	b.n	8001704 <AltimeterStateMachine+0x80>
 800174c:	2700      	movs	r7, #0
 800174e:	e7e1      	b.n	8001714 <AltimeterStateMachine+0x90>
 8001750:	2300      	movs	r3, #0
 8001752:	9301      	str	r3, [sp, #4]
 8001754:	e7ed      	b.n	8001732 <AltimeterStateMachine+0xae>
 8001756:	f000 fd01 	bl	800215c <HAL_GetTick>
 800175a:	9b05      	ldr	r3, [sp, #20]
 800175c:	1ac0      	subs	r0, r0, r3
 800175e:	23fa      	movs	r3, #250	@ 0xfa
 8001760:	015b      	lsls	r3, r3, #5
 8001762:	4298      	cmp	r0, r3
 8001764:	d902      	bls.n	800176c <AltimeterStateMachine+0xe8>
 8001766:	2203      	movs	r2, #3
 8001768:	4b2e      	ldr	r3, [pc, #184]	@ (8001824 <AltimeterStateMachine+0x1a0>)
 800176a:	701a      	strb	r2, [r3, #0]
 800176c:	2064      	movs	r0, #100	@ 0x64
 800176e:	f000 fcfb 	bl	8002168 <HAL_Delay>
 8001772:	e7b8      	b.n	80016e6 <AltimeterStateMachine+0x62>
 8001774:	492d      	ldr	r1, [pc, #180]	@ (800182c <AltimeterStateMachine+0x1a8>)
 8001776:	1c30      	adds	r0, r6, #0
 8001778:	f7ff fbc4 	bl	8000f04 <__aeabi_fsub>
 800177c:	1c29      	adds	r1, r5, #0
 800177e:	f7fe fe65 	bl	800044c <__aeabi_fcmpgt>
 8001782:	2800      	cmp	r0, #0
 8001784:	d1f2      	bne.n	800176c <AltimeterStateMachine+0xe8>
 8001786:	1c29      	adds	r1, r5, #0
 8001788:	1c30      	adds	r0, r6, #0
 800178a:	f7fe fe4b 	bl	8000424 <__aeabi_fcmplt>
 800178e:	2800      	cmp	r0, #0
 8001790:	d000      	beq.n	8001794 <AltimeterStateMachine+0x110>
 8001792:	1c2e      	adds	r6, r5, #0
 8001794:	2c00      	cmp	r4, #0
 8001796:	d0e9      	beq.n	800176c <AltimeterStateMachine+0xe8>
 8001798:	9b02      	ldr	r3, [sp, #8]
 800179a:	2b00      	cmp	r3, #0
 800179c:	d1e6      	bne.n	800176c <AltimeterStateMachine+0xe8>
 800179e:	4924      	ldr	r1, [pc, #144]	@ (8001830 <AltimeterStateMachine+0x1ac>)
 80017a0:	1c30      	adds	r0, r6, #0
 80017a2:	f7ff fbaf 	bl	8000f04 <__aeabi_fsub>
 80017a6:	9901      	ldr	r1, [sp, #4]
 80017a8:	f7fe fe50 	bl	800044c <__aeabi_fcmpgt>
 80017ac:	2800      	cmp	r0, #0
 80017ae:	d0dd      	beq.n	800176c <AltimeterStateMachine+0xe8>
 80017b0:	2001      	movs	r0, #1
 80017b2:	f7ff fec1 	bl	8001538 <fire_pyro_channel>
 80017b6:	2204      	movs	r2, #4
 80017b8:	4b1a      	ldr	r3, [pc, #104]	@ (8001824 <AltimeterStateMachine+0x1a0>)
 80017ba:	9402      	str	r4, [sp, #8]
 80017bc:	701a      	strb	r2, [r3, #0]
 80017be:	e7d5      	b.n	800176c <AltimeterStateMachine+0xe8>
 80017c0:	2c00      	cmp	r4, #0
 80017c2:	d0d3      	beq.n	800176c <AltimeterStateMachine+0xe8>
 80017c4:	9b03      	ldr	r3, [sp, #12]
 80017c6:	2b00      	cmp	r3, #0
 80017c8:	d1d0      	bne.n	800176c <AltimeterStateMachine+0xe8>
 80017ca:	491a      	ldr	r1, [pc, #104]	@ (8001834 <AltimeterStateMachine+0x1b0>)
 80017cc:	9801      	ldr	r0, [sp, #4]
 80017ce:	f7fe fe29 	bl	8000424 <__aeabi_fcmplt>
 80017d2:	2800      	cmp	r0, #0
 80017d4:	d0ca      	beq.n	800176c <AltimeterStateMachine+0xe8>
 80017d6:	f7ff fe9d 	bl	8001514 <fire_pyro_channel.part.0>
 80017da:	2305      	movs	r3, #5
 80017dc:	9a04      	ldr	r2, [sp, #16]
 80017de:	7013      	strb	r3, [r2, #0]
 80017e0:	f000 fcbc 	bl	800215c <HAL_GetTick>
 80017e4:	9403      	str	r4, [sp, #12]
 80017e6:	9000      	str	r0, [sp, #0]
 80017e8:	e7c0      	b.n	800176c <AltimeterStateMachine+0xe8>
 80017ea:	f000 fcb7 	bl	800215c <HAL_GetTick>
 80017ee:	9b00      	ldr	r3, [sp, #0]
 80017f0:	1ac0      	subs	r0, r0, r3
 80017f2:	4b11      	ldr	r3, [pc, #68]	@ (8001838 <AltimeterStateMachine+0x1b4>)
 80017f4:	4298      	cmp	r0, r3
 80017f6:	d9b9      	bls.n	800176c <AltimeterStateMachine+0xe8>
 80017f8:	1c30      	adds	r0, r6, #0
 80017fa:	f7ff fdfd 	bl	80013f8 <__aeabi_f2iz>
 80017fe:	2196      	movs	r1, #150	@ 0x96
 8001800:	f000 f856 	bl	80018b0 <buzz_out_value>
 8001804:	f000 fcaa 	bl	800215c <HAL_GetTick>
 8001808:	9000      	str	r0, [sp, #0]
 800180a:	e7af      	b.n	800176c <AltimeterStateMachine+0xe8>
 800180c:	f000 f8e9 	bl	80019e2 <Error_Handler>
 8001810:	e7ac      	b.n	800176c <AltimeterStateMachine+0xe8>
 8001812:	46c0      	nop			@ (mov r8, r8)
 8001814:	00000bb8 	.word	0x00000bb8
 8001818:	08007000 	.word	0x08007000
 800181c:	200000f0 	.word	0x200000f0
 8001820:	20000088 	.word	0x20000088
 8001824:	20000078 	.word	0x20000078
 8001828:	41200000 	.word	0x41200000
 800182c:	43fa0000 	.word	0x43fa0000
 8001830:	41700000 	.word	0x41700000
 8001834:	4364999a 	.word	0x4364999a
 8001838:	00003a98 	.word	0x00003a98

0800183c <Buzzer_Start>:
 800183c:	b570      	push	{r4, r5, r6, lr}
 800183e:	4b09      	ldr	r3, [pc, #36]	@ (8001864 <Buzzer_Start+0x28>)
 8001840:	0004      	movs	r4, r0
 8001842:	781a      	ldrb	r2, [r3, #0]
 8001844:	b2d5      	uxtb	r5, r2
 8001846:	2a00      	cmp	r2, #0
 8001848:	d10b      	bne.n	8001862 <Buzzer_Start+0x26>
 800184a:	3201      	adds	r2, #1
 800184c:	701a      	strb	r2, [r3, #0]
 800184e:	f000 fc85 	bl	800215c <HAL_GetTick>
 8001852:	4b05      	ldr	r3, [pc, #20]	@ (8001868 <Buzzer_Start+0x2c>)
 8001854:	0029      	movs	r1, r5
 8001856:	6018      	str	r0, [r3, #0]
 8001858:	4b04      	ldr	r3, [pc, #16]	@ (800186c <Buzzer_Start+0x30>)
 800185a:	4805      	ldr	r0, [pc, #20]	@ (8001870 <Buzzer_Start+0x34>)
 800185c:	601c      	str	r4, [r3, #0]
 800185e:	f002 f869 	bl	8003934 <HAL_TIM_PWM_Start>
 8001862:	bd70      	pop	{r4, r5, r6, pc}
 8001864:	20000084 	.word	0x20000084
 8001868:	20000080 	.word	0x20000080
 800186c:	2000007c 	.word	0x2000007c
 8001870:	200000a4 	.word	0x200000a4

08001874 <Buzzer_Update>:
 8001874:	b510      	push	{r4, lr}
 8001876:	4c0a      	ldr	r4, [pc, #40]	@ (80018a0 <Buzzer_Update+0x2c>)
 8001878:	7823      	ldrb	r3, [r4, #0]
 800187a:	2b00      	cmp	r3, #0
 800187c:	d00e      	beq.n	800189c <Buzzer_Update+0x28>
 800187e:	f000 fc6d 	bl	800215c <HAL_GetTick>
 8001882:	4b08      	ldr	r3, [pc, #32]	@ (80018a4 <Buzzer_Update+0x30>)
 8001884:	681a      	ldr	r2, [r3, #0]
 8001886:	4b08      	ldr	r3, [pc, #32]	@ (80018a8 <Buzzer_Update+0x34>)
 8001888:	1a80      	subs	r0, r0, r2
 800188a:	681b      	ldr	r3, [r3, #0]
 800188c:	4298      	cmp	r0, r3
 800188e:	d305      	bcc.n	800189c <Buzzer_Update+0x28>
 8001890:	2100      	movs	r1, #0
 8001892:	4806      	ldr	r0, [pc, #24]	@ (80018ac <Buzzer_Update+0x38>)
 8001894:	f002 f8a0 	bl	80039d8 <HAL_TIM_PWM_Stop>
 8001898:	2300      	movs	r3, #0
 800189a:	7023      	strb	r3, [r4, #0]
 800189c:	bd10      	pop	{r4, pc}
 800189e:	46c0      	nop			@ (mov r8, r8)
 80018a0:	20000084 	.word	0x20000084
 80018a4:	20000080 	.word	0x20000080
 80018a8:	2000007c 	.word	0x2000007c
 80018ac:	200000a4 	.word	0x200000a4

080018b0 <buzz_out_value>:
 80018b0:	b5f0      	push	{r4, r5, r6, r7, lr}
 80018b2:	2603      	movs	r6, #3
 80018b4:	0007      	movs	r7, r0
 80018b6:	000d      	movs	r5, r1
 80018b8:	2301      	movs	r3, #1
 80018ba:	220a      	movs	r2, #10
 80018bc:	434e      	muls	r6, r1
 80018be:	b085      	sub	sp, #20
 80018c0:	2800      	cmp	r0, #0
 80018c2:	dc07      	bgt.n	80018d4 <buzz_out_value+0x24>
 80018c4:	0030      	movs	r0, r6
 80018c6:	f7ff ffb9 	bl	800183c <Buzzer_Start>
 80018ca:	0030      	movs	r0, r6
 80018cc:	f000 fc4c 	bl	8002168 <HAL_Delay>
 80018d0:	b005      	add	sp, #20
 80018d2:	bdf0      	pop	{r4, r5, r6, r7, pc}
 80018d4:	001c      	movs	r4, r3
 80018d6:	0013      	movs	r3, r2
 80018d8:	4363      	muls	r3, r4
 80018da:	42bb      	cmp	r3, r7
 80018dc:	ddfa      	ble.n	80018d4 <buzz_out_value+0x24>
 80018de:	006b      	lsls	r3, r5, #1
 80018e0:	9301      	str	r3, [sp, #4]
 80018e2:	00ab      	lsls	r3, r5, #2
 80018e4:	9302      	str	r3, [sp, #8]
 80018e6:	2c00      	cmp	r4, #0
 80018e8:	d0f2      	beq.n	80018d0 <buzz_out_value+0x20>
 80018ea:	0021      	movs	r1, r4
 80018ec:	0038      	movs	r0, r7
 80018ee:	f7fe fd81 	bl	80003f4 <__aeabi_idivmod>
 80018f2:	9000      	str	r0, [sp, #0]
 80018f4:	9103      	str	r1, [sp, #12]
 80018f6:	2800      	cmp	r0, #0
 80018f8:	d11f      	bne.n	800193a <buzz_out_value+0x8a>
 80018fa:	0030      	movs	r0, r6
 80018fc:	f7ff ff9e 	bl	800183c <Buzzer_Start>
 8001900:	0030      	movs	r0, r6
 8001902:	f000 fc31 	bl	8002168 <HAL_Delay>
 8001906:	210a      	movs	r1, #10
 8001908:	0020      	movs	r0, r4
 800190a:	f7fe fc8d 	bl	8000228 <__divsi3>
 800190e:	0004      	movs	r4, r0
 8001910:	9802      	ldr	r0, [sp, #8]
 8001912:	9f03      	ldr	r7, [sp, #12]
 8001914:	f000 fc28 	bl	8002168 <HAL_Delay>
 8001918:	e7e5      	b.n	80018e6 <buzz_out_value+0x36>
 800191a:	0028      	movs	r0, r5
 800191c:	f7ff ff8e 	bl	800183c <Buzzer_Start>
 8001920:	0028      	movs	r0, r5
 8001922:	f000 fc21 	bl	8002168 <HAL_Delay>
 8001926:	f7ff ffa5 	bl	8001874 <Buzzer_Update>
 800192a:	9801      	ldr	r0, [sp, #4]
 800192c:	f000 fc1c 	bl	8002168 <HAL_Delay>
 8001930:	3701      	adds	r7, #1
 8001932:	9b00      	ldr	r3, [sp, #0]
 8001934:	429f      	cmp	r7, r3
 8001936:	dbf0      	blt.n	800191a <buzz_out_value+0x6a>
 8001938:	e7e5      	b.n	8001906 <buzz_out_value+0x56>
 800193a:	2700      	movs	r7, #0
 800193c:	e7f9      	b.n	8001932 <buzz_out_value+0x82>

0800193e <buzz_out_altitude>:
 800193e:	b5f0      	push	{r4, r5, r6, r7, lr}
 8001940:	2603      	movs	r6, #3
 8001942:	b085      	sub	sp, #20
 8001944:	004b      	lsls	r3, r1, #1
 8001946:	000c      	movs	r4, r1
 8001948:	434e      	muls	r6, r1
 800194a:	9301      	str	r3, [sp, #4]
 800194c:	008b      	lsls	r3, r1, #2
 800194e:	2100      	movs	r1, #0
 8001950:	1c05      	adds	r5, r0, #0
 8001952:	9302      	str	r3, [sp, #8]
 8001954:	f7fe fd66 	bl	8000424 <__aeabi_fcmplt>
 8001958:	2800      	cmp	r0, #0
 800195a:	d002      	beq.n	8001962 <buzz_out_altitude+0x24>
 800195c:	2380      	movs	r3, #128	@ 0x80
 800195e:	061b      	lsls	r3, r3, #24
 8001960:	18ed      	adds	r5, r5, r3
 8001962:	1c28      	adds	r0, r5, #0
 8001964:	f7ff fd48 	bl	80013f8 <__aeabi_f2iz>
 8001968:	2301      	movs	r3, #1
 800196a:	0007      	movs	r7, r0
 800196c:	220a      	movs	r2, #10
 800196e:	2800      	cmp	r0, #0
 8001970:	d107      	bne.n	8001982 <buzz_out_altitude+0x44>
 8001972:	0030      	movs	r0, r6
 8001974:	f7ff ff62 	bl	800183c <Buzzer_Start>
 8001978:	0030      	movs	r0, r6
 800197a:	f000 fbf5 	bl	8002168 <HAL_Delay>
 800197e:	b005      	add	sp, #20
 8001980:	bdf0      	pop	{r4, r5, r6, r7, pc}
 8001982:	001d      	movs	r5, r3
 8001984:	4353      	muls	r3, r2
 8001986:	42bb      	cmp	r3, r7
 8001988:	ddfb      	ble.n	8001982 <buzz_out_altitude+0x44>
 800198a:	2d00      	cmp	r5, #0
 800198c:	ddf7      	ble.n	800197e <buzz_out_altitude+0x40>
 800198e:	0029      	movs	r1, r5
 8001990:	0038      	movs	r0, r7
 8001992:	f7fe fd2f 	bl	80003f4 <__aeabi_idivmod>
 8001996:	9000      	str	r0, [sp, #0]
 8001998:	9103      	str	r1, [sp, #12]
 800199a:	2800      	cmp	r0, #0
 800199c:	d11f      	bne.n	80019de <buzz_out_altitude+0xa0>
 800199e:	0030      	movs	r0, r6
 80019a0:	f7ff ff4c 	bl	800183c <Buzzer_Start>
 80019a4:	0030      	movs	r0, r6
 80019a6:	f000 fbdf 	bl	8002168 <HAL_Delay>
 80019aa:	210a      	movs	r1, #10
 80019ac:	0028      	movs	r0, r5
 80019ae:	f7fe fc3b 	bl	8000228 <__divsi3>
 80019b2:	0005      	movs	r5, r0
 80019b4:	9802      	ldr	r0, [sp, #8]
 80019b6:	9f03      	ldr	r7, [sp, #12]
 80019b8:	f000 fbd6 	bl	8002168 <HAL_Delay>
 80019bc:	e7e5      	b.n	800198a <buzz_out_altitude+0x4c>
 80019be:	0020      	movs	r0, r4
 80019c0:	f7ff ff3c 	bl	800183c <Buzzer_Start>
 80019c4:	0020      	movs	r0, r4
 80019c6:	f000 fbcf 	bl	8002168 <HAL_Delay>
 80019ca:	f7ff ff53 	bl	8001874 <Buzzer_Update>
 80019ce:	9801      	ldr	r0, [sp, #4]
 80019d0:	f000 fbca 	bl	8002168 <HAL_Delay>
 80019d4:	3701      	adds	r7, #1
 80019d6:	9b00      	ldr	r3, [sp, #0]
 80019d8:	429f      	cmp	r7, r3
 80019da:	dbf0      	blt.n	80019be <buzz_out_altitude+0x80>
 80019dc:	e7e5      	b.n	80019aa <buzz_out_altitude+0x6c>
 80019de:	2700      	movs	r7, #0
 80019e0:	e7f9      	b.n	80019d6 <buzz_out_altitude+0x98>

080019e2 <Error_Handler>:
 80019e2:	b510      	push	{r4, lr}
 80019e4:	b672      	cpsid	i
 80019e6:	2464      	movs	r4, #100	@ 0x64
 80019e8:	0020      	movs	r0, r4
 80019ea:	f7ff ff27 	bl	800183c <Buzzer_Start>
 80019ee:	0020      	movs	r0, r4
 80019f0:	f000 fbba 	bl	8002168 <HAL_Delay>
 80019f4:	f7ff ff3e 	bl	8001874 <Buzzer_Update>
 80019f8:	0020      	movs	r0, r4
 80019fa:	f000 fbb5 	bl	8002168 <HAL_Delay>
 80019fe:	e7f3      	b.n	80019e8 <Error_Handler+0x6>

08001a00 <SystemClock_Config>:
 8001a00:	b510      	push	{r4, lr}
 8001a02:	b092      	sub	sp, #72	@ 0x48
 8001a04:	2234      	movs	r2, #52	@ 0x34
 8001a06:	2100      	movs	r1, #0
 8001a08:	a805      	add	r0, sp, #20
 8001a0a:	f002 f819 	bl	8003a40 <memset>
 8001a0e:	2210      	movs	r2, #16
 8001a10:	2100      	movs	r1, #0
 8001a12:	a801      	add	r0, sp, #4
 8001a14:	f002 f814 	bl	8003a40 <memset>
 8001a18:	2080      	movs	r0, #128	@ 0x80
 8001a1a:	0080      	lsls	r0, r0, #2
 8001a1c:	f001 f814 	bl	8002a48 <HAL_PWREx_ControlVoltageScaling>
 8001a20:	2380      	movs	r3, #128	@ 0x80
 8001a22:	005b      	lsls	r3, r3, #1
 8001a24:	9308      	str	r3, [sp, #32]
 8001a26:	2300      	movs	r3, #0
 8001a28:	9309      	str	r3, [sp, #36]	@ 0x24
 8001a2a:	930e      	str	r3, [sp, #56]	@ 0x38
 8001a2c:	3308      	adds	r3, #8
 8001a2e:	930f      	str	r3, [sp, #60]	@ 0x3c
 8001a30:	2380      	movs	r3, #128	@ 0x80
 8001a32:	029b      	lsls	r3, r3, #10
 8001a34:	9310      	str	r3, [sp, #64]	@ 0x40
 8001a36:	2380      	movs	r3, #128	@ 0x80
 8001a38:	2402      	movs	r4, #2
 8001a3a:	2240      	movs	r2, #64	@ 0x40
 8001a3c:	059b      	lsls	r3, r3, #22
 8001a3e:	a805      	add	r0, sp, #20
 8001a40:	9405      	str	r4, [sp, #20]
 8001a42:	920a      	str	r2, [sp, #40]	@ 0x28
 8001a44:	940c      	str	r4, [sp, #48]	@ 0x30
 8001a46:	940d      	str	r4, [sp, #52]	@ 0x34
 8001a48:	9311      	str	r3, [sp, #68]	@ 0x44
 8001a4a:	f001 f829 	bl	8002aa0 <HAL_RCC_OscConfig>
 8001a4e:	2800      	cmp	r0, #0
 8001a50:	d001      	beq.n	8001a56 <SystemClock_Config+0x56>
 8001a52:	f7ff ffc6 	bl	80019e2 <Error_Handler>
 8001a56:	2307      	movs	r3, #7
 8001a58:	9301      	str	r3, [sp, #4]
 8001a5a:	2380      	movs	r3, #128	@ 0x80
 8001a5c:	9004      	str	r0, [sp, #16]
 8001a5e:	011b      	lsls	r3, r3, #4
 8001a60:	2101      	movs	r1, #1
 8001a62:	a801      	add	r0, sp, #4
 8001a64:	9402      	str	r4, [sp, #8]
 8001a66:	9303      	str	r3, [sp, #12]
 8001a68:	f001 fa7a 	bl	8002f60 <HAL_RCC_ClockConfig>
 8001a6c:	2800      	cmp	r0, #0
 8001a6e:	d1f0      	bne.n	8001a52 <SystemClock_Config+0x52>
 8001a70:	b012      	add	sp, #72	@ 0x48
 8001a72:	bd10      	pop	{r4, pc}

08001a74 <main>:
 8001a74:	b570      	push	{r4, r5, r6, lr}
 8001a76:	b090      	sub	sp, #64	@ 0x40
 8001a78:	f000 fb50 	bl	800211c <HAL_Init>
 8001a7c:	f7ff ffc0 	bl	8001a00 <SystemClock_Config>
 8001a80:	2214      	movs	r2, #20
 8001a82:	2100      	movs	r1, #0
 8001a84:	a809      	add	r0, sp, #36	@ 0x24
 8001a86:	f001 ffdb 	bl	8003a40 <memset>
 8001a8a:	2102      	movs	r1, #2
 8001a8c:	2601      	movs	r6, #1
 8001a8e:	20a0      	movs	r0, #160	@ 0xa0
 8001a90:	4b45      	ldr	r3, [pc, #276]	@ (8001ba8 <main+0x134>)
 8001a92:	05c0      	lsls	r0, r0, #23
 8001a94:	6b5a      	ldr	r2, [r3, #52]	@ 0x34
 8001a96:	2500      	movs	r5, #0
 8001a98:	430a      	orrs	r2, r1
 8001a9a:	635a      	str	r2, [r3, #52]	@ 0x34
 8001a9c:	6b5a      	ldr	r2, [r3, #52]	@ 0x34
 8001a9e:	400a      	ands	r2, r1
 8001aa0:	9200      	str	r2, [sp, #0]
 8001aa2:	9a00      	ldr	r2, [sp, #0]
 8001aa4:	6b5a      	ldr	r2, [r3, #52]	@ 0x34
 8001aa6:	3105      	adds	r1, #5
 8001aa8:	4332      	orrs	r2, r6
 8001aaa:	635a      	str	r2, [r3, #52]	@ 0x34
 8001aac:	6b5b      	ldr	r3, [r3, #52]	@ 0x34
 8001aae:	2200      	movs	r2, #0
 8001ab0:	4033      	ands	r3, r6
 8001ab2:	9301      	str	r3, [sp, #4]
 8001ab4:	9b01      	ldr	r3, [sp, #4]
 8001ab6:	f000 fc65 	bl	8002384 <HAL_GPIO_WritePin>
 8001aba:	20a0      	movs	r0, #160	@ 0xa0
 8001abc:	2307      	movs	r3, #7
 8001abe:	a909      	add	r1, sp, #36	@ 0x24
 8001ac0:	05c0      	lsls	r0, r0, #23
 8001ac2:	9309      	str	r3, [sp, #36]	@ 0x24
 8001ac4:	960a      	str	r6, [sp, #40]	@ 0x28
 8001ac6:	950b      	str	r5, [sp, #44]	@ 0x2c
 8001ac8:	950c      	str	r5, [sp, #48]	@ 0x30
 8001aca:	f000 fba3 	bl	8002214 <HAL_GPIO_Init>
 8001ace:	20a0      	movs	r0, #160	@ 0xa0
 8001ad0:	2318      	movs	r3, #24
 8001ad2:	a909      	add	r1, sp, #36	@ 0x24
 8001ad4:	05c0      	lsls	r0, r0, #23
 8001ad6:	9309      	str	r3, [sp, #36]	@ 0x24
 8001ad8:	950a      	str	r5, [sp, #40]	@ 0x28
 8001ada:	950b      	str	r5, [sp, #44]	@ 0x2c
 8001adc:	f000 fb9a 	bl	8002214 <HAL_GPIO_Init>
 8001ae0:	4c32      	ldr	r4, [pc, #200]	@ (8001bac <main+0x138>)
 8001ae2:	4b33      	ldr	r3, [pc, #204]	@ (8001bb0 <main+0x13c>)
 8001ae4:	0020      	movs	r0, r4
 8001ae6:	6023      	str	r3, [r4, #0]
 8001ae8:	4b32      	ldr	r3, [pc, #200]	@ (8001bb4 <main+0x140>)
 8001aea:	60a5      	str	r5, [r4, #8]
 8001aec:	6063      	str	r3, [r4, #4]
 8001aee:	60e6      	str	r6, [r4, #12]
 8001af0:	6125      	str	r5, [r4, #16]
 8001af2:	6165      	str	r5, [r4, #20]
 8001af4:	61a5      	str	r5, [r4, #24]
 8001af6:	61e5      	str	r5, [r4, #28]
 8001af8:	6225      	str	r5, [r4, #32]
 8001afa:	f000 fdcb 	bl	8002694 <HAL_I2C_Init>
 8001afe:	0001      	movs	r1, r0
 8001b00:	42a8      	cmp	r0, r5
 8001b02:	d001      	beq.n	8001b08 <main+0x94>
 8001b04:	f7ff ff6d 	bl	80019e2 <Error_Handler>
 8001b08:	0020      	movs	r0, r4
 8001b0a:	f000 ff53 	bl	80029b4 <HAL_I2CEx_ConfigAnalogFilter>
 8001b0e:	1e01      	subs	r1, r0, #0
 8001b10:	d1f8      	bne.n	8001b04 <main+0x90>
 8001b12:	0020      	movs	r0, r4
 8001b14:	f000 ff74 	bl	8002a00 <HAL_I2CEx_ConfigDigitalFilter>
 8001b18:	1e05      	subs	r5, r0, #0
 8001b1a:	d1f3      	bne.n	8001b04 <main+0x90>
 8001b1c:	0001      	movs	r1, r0
 8001b1e:	2210      	movs	r2, #16
 8001b20:	a805      	add	r0, sp, #20
 8001b22:	f001 ff8d 	bl	8003a40 <memset>
 8001b26:	220c      	movs	r2, #12
 8001b28:	0029      	movs	r1, r5
 8001b2a:	a802      	add	r0, sp, #8
 8001b2c:	f001 ff88 	bl	8003a40 <memset>
 8001b30:	221c      	movs	r2, #28
 8001b32:	0029      	movs	r1, r5
 8001b34:	a809      	add	r0, sp, #36	@ 0x24
 8001b36:	f001 ff83 	bl	8003a40 <memset>
 8001b3a:	4c1f      	ldr	r4, [pc, #124]	@ (8001bb8 <main+0x144>)
 8001b3c:	4b1f      	ldr	r3, [pc, #124]	@ (8001bbc <main+0x148>)
 8001b3e:	0020      	movs	r0, r4
 8001b40:	6023      	str	r3, [r4, #0]
 8001b42:	2320      	movs	r3, #32
 8001b44:	6063      	str	r3, [r4, #4]
 8001b46:	33d9      	adds	r3, #217	@ 0xd9
 8001b48:	60a5      	str	r5, [r4, #8]
 8001b4a:	60e3      	str	r3, [r4, #12]
 8001b4c:	6125      	str	r5, [r4, #16]
 8001b4e:	61a5      	str	r5, [r4, #24]
 8001b50:	f001 fcb0 	bl	80034b4 <HAL_TIM_Base_Init>
 8001b54:	2800      	cmp	r0, #0
 8001b56:	d1d5      	bne.n	8001b04 <main+0x90>
 8001b58:	2380      	movs	r3, #128	@ 0x80
 8001b5a:	0020      	movs	r0, r4
 8001b5c:	015b      	lsls	r3, r3, #5
 8001b5e:	a905      	add	r1, sp, #20
 8001b60:	9305      	str	r3, [sp, #20]
 8001b62:	f001 fdc9 	bl	80036f8 <HAL_TIM_ConfigClockSource>
 8001b66:	2800      	cmp	r0, #0
 8001b68:	d1cc      	bne.n	8001b04 <main+0x90>
 8001b6a:	0020      	movs	r0, r4
 8001b6c:	f001 fccc 	bl	8003508 <HAL_TIM_PWM_Init>
 8001b70:	2800      	cmp	r0, #0
 8001b72:	d1c7      	bne.n	8001b04 <main+0x90>
 8001b74:	9002      	str	r0, [sp, #8]
 8001b76:	9004      	str	r0, [sp, #16]
 8001b78:	a902      	add	r1, sp, #8
 8001b7a:	0020      	movs	r0, r4
 8001b7c:	f001 ff30 	bl	80039e0 <HAL_TIMEx_MasterConfigSynchronization>
 8001b80:	1e02      	subs	r2, r0, #0
 8001b82:	d1bf      	bne.n	8001b04 <main+0x90>
 8001b84:	2360      	movs	r3, #96	@ 0x60
 8001b86:	900b      	str	r0, [sp, #44]	@ 0x2c
 8001b88:	9309      	str	r3, [sp, #36]	@ 0x24
 8001b8a:	900d      	str	r0, [sp, #52]	@ 0x34
 8001b8c:	331d      	adds	r3, #29
 8001b8e:	0020      	movs	r0, r4
 8001b90:	a909      	add	r1, sp, #36	@ 0x24
 8001b92:	930a      	str	r3, [sp, #40]	@ 0x28
 8001b94:	f001 fd1e 	bl	80035d4 <HAL_TIM_PWM_ConfigChannel>
 8001b98:	2800      	cmp	r0, #0
 8001b9a:	d1b3      	bne.n	8001b04 <main+0x90>
 8001b9c:	0020      	movs	r0, r4
 8001b9e:	f000 fa3b 	bl	8002018 <HAL_TIM_MspPostInit>
 8001ba2:	f7ff fd6f 	bl	8001684 <AltimeterStateMachine>
 8001ba6:	e7fe      	b.n	8001ba6 <main+0x132>
 8001ba8:	40021000 	.word	0x40021000
 8001bac:	200000f0 	.word	0x200000f0
 8001bb0:	40005400 	.word	0x40005400
 8001bb4:	00b07cb4 	.word	0x00b07cb4
 8001bb8:	200000a4 	.word	0x200000a4
 8001bbc:	40000400 	.word	0x40000400

08001bc0 <ms5607_write_cmd>:
 8001bc0:	b51f      	push	{r0, r1, r2, r3, r4, lr}
 8001bc2:	220f      	movs	r2, #15
 8001bc4:	2364      	movs	r3, #100	@ 0x64
 8001bc6:	446a      	add	r2, sp
 8001bc8:	7011      	strb	r1, [r2, #0]
 8001bca:	7901      	ldrb	r1, [r0, #4]
 8001bcc:	9300      	str	r3, [sp, #0]
 8001bce:	6800      	ldr	r0, [r0, #0]
 8001bd0:	3b63      	subs	r3, #99	@ 0x63
 8001bd2:	f000 fdbd 	bl	8002750 <HAL_I2C_Master_Transmit>
 8001bd6:	b005      	add	sp, #20
 8001bd8:	bd00      	pop	{pc}

08001bda <ms5607_read_prom>:
 8001bda:	b57f      	push	{r0, r1, r2, r3, r4, r5, r6, lr}
 8001bdc:	3150      	adds	r1, #80	@ 0x50
 8001bde:	0049      	lsls	r1, r1, #1
 8001be0:	b2c9      	uxtb	r1, r1
 8001be2:	0004      	movs	r4, r0
 8001be4:	0015      	movs	r5, r2
 8001be6:	f7ff ffeb 	bl	8001bc0 <ms5607_write_cmd>
 8001bea:	2800      	cmp	r0, #0
 8001bec:	d002      	beq.n	8001bf4 <ms5607_read_prom+0x1a>
 8001bee:	2001      	movs	r0, #1
 8001bf0:	b004      	add	sp, #16
 8001bf2:	bd70      	pop	{r4, r5, r6, pc}
 8001bf4:	2364      	movs	r3, #100	@ 0x64
 8001bf6:	7921      	ldrb	r1, [r4, #4]
 8001bf8:	ae03      	add	r6, sp, #12
 8001bfa:	9300      	str	r3, [sp, #0]
 8001bfc:	0032      	movs	r2, r6
 8001bfe:	6820      	ldr	r0, [r4, #0]
 8001c00:	3b62      	subs	r3, #98	@ 0x62
 8001c02:	f000 fe49 	bl	8002898 <HAL_I2C_Master_Receive>
 8001c06:	2800      	cmp	r0, #0
 8001c08:	d1f1      	bne.n	8001bee <ms5607_read_prom+0x14>
 8001c0a:	8833      	ldrh	r3, [r6, #0]
 8001c0c:	ba5b      	rev16	r3, r3
 8001c0e:	802b      	strh	r3, [r5, #0]
 8001c10:	e7ee      	b.n	8001bf0 <ms5607_read_prom+0x16>

08001c12 <ms5607_read_adc.constprop.0>:
 8001c12:	b57f      	push	{r0, r1, r2, r3, r4, r5, r6, lr}
 8001c14:	000c      	movs	r4, r1
 8001c16:	2100      	movs	r1, #0
 8001c18:	0006      	movs	r6, r0
 8001c1a:	f7ff ffd1 	bl	8001bc0 <ms5607_write_cmd>
 8001c1e:	2800      	cmp	r0, #0
 8001c20:	d002      	beq.n	8001c28 <ms5607_read_adc.constprop.0+0x16>
 8001c22:	2001      	movs	r0, #1
 8001c24:	b004      	add	sp, #16
 8001c26:	bd70      	pop	{r4, r5, r6, pc}
 8001c28:	2364      	movs	r3, #100	@ 0x64
 8001c2a:	7931      	ldrb	r1, [r6, #4]
 8001c2c:	ad03      	add	r5, sp, #12
 8001c2e:	9300      	str	r3, [sp, #0]
 8001c30:	002a      	movs	r2, r5
 8001c32:	6830      	ldr	r0, [r6, #0]
 8001c34:	3b61      	subs	r3, #97	@ 0x61
 8001c36:	f000 fe2f 	bl	8002898 <HAL_I2C_Master_Receive>
 8001c3a:	2800      	cmp	r0, #0
 8001c3c:	d1f1      	bne.n	8001c22 <ms5607_read_adc.constprop.0+0x10>
 8001c3e:	786a      	ldrb	r2, [r5, #1]
 8001c40:	782b      	ldrb	r3, [r5, #0]
 8001c42:	0212      	lsls	r2, r2, #8
 8001c44:	041b      	lsls	r3, r3, #16
 8001c46:	4313      	orrs	r3, r2
 8001c48:	78aa      	ldrb	r2, [r5, #2]
 8001c4a:	4313      	orrs	r3, r2
 8001c4c:	6023      	str	r3, [r4, #0]
 8001c4e:	e7e9      	b.n	8001c24 <ms5607_read_adc.constprop.0+0x12>

08001c50 <ms5607_init>:
 8001c50:	b570      	push	{r4, r5, r6, lr}
 8001c52:	1e04      	subs	r4, r0, #0
 8001c54:	d101      	bne.n	8001c5a <ms5607_init+0xa>
 8001c56:	2001      	movs	r0, #1
 8001c58:	bd70      	pop	{r4, r5, r6, pc}
 8001c5a:	2900      	cmp	r1, #0
 8001c5c:	d0fb      	beq.n	8001c56 <ms5607_init+0x6>
 8001c5e:	6001      	str	r1, [r0, #0]
 8001c60:	7102      	strb	r2, [r0, #4]
 8001c62:	211e      	movs	r1, #30
 8001c64:	f7ff ffac 	bl	8001bc0 <ms5607_write_cmd>
 8001c68:	1e05      	subs	r5, r0, #0
 8001c6a:	d1f4      	bne.n	8001c56 <ms5607_init+0x6>
 8001c6c:	2003      	movs	r0, #3
 8001c6e:	f000 fa7b 	bl	8002168 <HAL_Delay>
 8001c72:	0029      	movs	r1, r5
 8001c74:	0020      	movs	r0, r4
 8001c76:	1da2      	adds	r2, r4, #6
 8001c78:	f7ff ffaf 	bl	8001bda <ms5607_read_prom>
 8001c7c:	2800      	cmp	r0, #0
 8001c7e:	d1ea      	bne.n	8001c56 <ms5607_init+0x6>
 8001c80:	0022      	movs	r2, r4
 8001c82:	2101      	movs	r1, #1
 8001c84:	0020      	movs	r0, r4
 8001c86:	3208      	adds	r2, #8
 8001c88:	f7ff ffa7 	bl	8001bda <ms5607_read_prom>
 8001c8c:	2800      	cmp	r0, #0
 8001c8e:	d1e2      	bne.n	8001c56 <ms5607_init+0x6>
 8001c90:	0022      	movs	r2, r4
 8001c92:	2102      	movs	r1, #2
 8001c94:	0020      	movs	r0, r4
 8001c96:	320a      	adds	r2, #10
 8001c98:	f7ff ff9f 	bl	8001bda <ms5607_read_prom>
 8001c9c:	2800      	cmp	r0, #0
 8001c9e:	d1da      	bne.n	8001c56 <ms5607_init+0x6>
 8001ca0:	0022      	movs	r2, r4
 8001ca2:	2103      	movs	r1, #3
 8001ca4:	0020      	movs	r0, r4
 8001ca6:	320c      	adds	r2, #12
 8001ca8:	f7ff ff97 	bl	8001bda <ms5607_read_prom>
 8001cac:	2800      	cmp	r0, #0
 8001cae:	d1d2      	bne.n	8001c56 <ms5607_init+0x6>
 8001cb0:	0022      	movs	r2, r4
 8001cb2:	2104      	movs	r1, #4
 8001cb4:	0020      	movs	r0, r4
 8001cb6:	320e      	adds	r2, #14
 8001cb8:	f7ff ff8f 	bl	8001bda <ms5607_read_prom>
 8001cbc:	2800      	cmp	r0, #0
 8001cbe:	d1ca      	bne.n	8001c56 <ms5607_init+0x6>
 8001cc0:	0022      	movs	r2, r4
 8001cc2:	2105      	movs	r1, #5
 8001cc4:	0020      	movs	r0, r4
 8001cc6:	3210      	adds	r2, #16
 8001cc8:	f7ff ff87 	bl	8001bda <ms5607_read_prom>
 8001ccc:	1e43      	subs	r3, r0, #1
 8001cce:	4198      	sbcs	r0, r3
 8001cd0:	b2c0      	uxtb	r0, r0
 8001cd2:	e7c1      	b.n	8001c58 <ms5607_init+0x8>

08001cd4 <ms5607_read_values>:
 8001cd4:	2200      	movs	r2, #0
 8001cd6:	b5f0      	push	{r4, r5, r6, r7, lr}
 8001cd8:	b08f      	sub	sp, #60	@ 0x3c
 8001cda:	0007      	movs	r7, r0
 8001cdc:	000b      	movs	r3, r1
 8001cde:	920c      	str	r2, [sp, #48]	@ 0x30
 8001ce0:	920d      	str	r2, [sp, #52]	@ 0x34
 8001ce2:	2903      	cmp	r1, #3
 8001ce4:	d811      	bhi.n	8001d0a <ms5607_read_values+0x36>
 8001ce6:	004c      	lsls	r4, r1, #1
 8001ce8:	b2e4      	uxtb	r4, r4
 8001cea:	0021      	movs	r1, r4
 8001cec:	4a85      	ldr	r2, [pc, #532]	@ (8001f04 <ms5607_read_values+0x230>)
 8001cee:	3140      	adds	r1, #64	@ 0x40
 8001cf0:	3450      	adds	r4, #80	@ 0x50
 8001cf2:	5cd5      	ldrb	r5, [r2, r3]
 8001cf4:	b2c9      	uxtb	r1, r1
 8001cf6:	b2e4      	uxtb	r4, r4
 8001cf8:	0038      	movs	r0, r7
 8001cfa:	f7ff ff61 	bl	8001bc0 <ms5607_write_cmd>
 8001cfe:	2800      	cmp	r0, #0
 8001d00:	d007      	beq.n	8001d12 <ms5607_read_values+0x3e>
 8001d02:	2601      	movs	r6, #1
 8001d04:	0030      	movs	r0, r6
 8001d06:	b00f      	add	sp, #60	@ 0x3c
 8001d08:	bdf0      	pop	{r4, r5, r6, r7, pc}
 8001d0a:	2509      	movs	r5, #9
 8001d0c:	2458      	movs	r4, #88	@ 0x58
 8001d0e:	2148      	movs	r1, #72	@ 0x48
 8001d10:	e7f2      	b.n	8001cf8 <ms5607_read_values+0x24>
 8001d12:	0028      	movs	r0, r5
 8001d14:	f000 fa28 	bl	8002168 <HAL_Delay>
 8001d18:	0038      	movs	r0, r7
 8001d1a:	a90c      	add	r1, sp, #48	@ 0x30
 8001d1c:	f7ff ff79 	bl	8001c12 <ms5607_read_adc.constprop.0>
 8001d20:	2800      	cmp	r0, #0
 8001d22:	d1ee      	bne.n	8001d02 <ms5607_read_values+0x2e>
 8001d24:	0021      	movs	r1, r4
 8001d26:	0038      	movs	r0, r7
 8001d28:	f7ff ff4a 	bl	8001bc0 <ms5607_write_cmd>
 8001d2c:	2800      	cmp	r0, #0
 8001d2e:	d1e8      	bne.n	8001d02 <ms5607_read_values+0x2e>
 8001d30:	0028      	movs	r0, r5
 8001d32:	f000 fa19 	bl	8002168 <HAL_Delay>
 8001d36:	0038      	movs	r0, r7
 8001d38:	a90d      	add	r1, sp, #52	@ 0x34
 8001d3a:	f7ff ff6a 	bl	8001c12 <ms5607_read_adc.constprop.0>
 8001d3e:	1e06      	subs	r6, r0, #0
 8001d40:	d1df      	bne.n	8001d02 <ms5607_read_values+0x2e>
 8001d42:	9b0c      	ldr	r3, [sp, #48]	@ 0x30
 8001d44:	0031      	movs	r1, r6
 8001d46:	9307      	str	r3, [sp, #28]
 8001d48:	0033      	movs	r3, r6
 8001d4a:	89fc      	ldrh	r4, [r7, #14]
 8001d4c:	980d      	ldr	r0, [sp, #52]	@ 0x34
 8001d4e:	0222      	lsls	r2, r4, #8
 8001d50:	1a80      	subs	r0, r0, r2
 8001d52:	4199      	sbcs	r1, r3
 8001d54:	9000      	str	r0, [sp, #0]
 8001d56:	9101      	str	r1, [sp, #4]
 8001d58:	9a00      	ldr	r2, [sp, #0]
 8001d5a:	9b01      	ldr	r3, [sp, #4]
 8001d5c:	8a38      	ldrh	r0, [r7, #16]
 8001d5e:	0031      	movs	r1, r6
 8001d60:	f7fe fb88 	bl	8000474 <__aeabi_lmul>
 8001d64:	0033      	movs	r3, r6
 8001d66:	0004      	movs	r4, r0
 8001d68:	000d      	movs	r5, r1
 8001d6a:	17c9      	asrs	r1, r1, #31
 8001d6c:	0249      	lsls	r1, r1, #9
 8001d6e:	0a4a      	lsrs	r2, r1, #9
 8001d70:	1912      	adds	r2, r2, r4
 8001d72:	416b      	adcs	r3, r5
 8001d74:	0259      	lsls	r1, r3, #9
 8001d76:	0dd0      	lsrs	r0, r2, #23
 8001d78:	15db      	asrs	r3, r3, #23
 8001d7a:	4308      	orrs	r0, r1
 8001d7c:	9305      	str	r3, [sp, #20]
 8001d7e:	23fa      	movs	r3, #250	@ 0xfa
 8001d80:	4684      	mov	ip, r0
 8001d82:	00db      	lsls	r3, r3, #3
 8001d84:	4463      	add	r3, ip
 8001d86:	9304      	str	r3, [sp, #16]
 8001d88:	9002      	str	r0, [sp, #8]
 8001d8a:	89b8      	ldrh	r0, [r7, #12]
 8001d8c:	9a00      	ldr	r2, [sp, #0]
 8001d8e:	9b01      	ldr	r3, [sp, #4]
 8001d90:	0031      	movs	r1, r6
 8001d92:	f7fe fb6f 	bl	8000474 <__aeabi_lmul>
 8001d96:	0004      	movs	r4, r0
 8001d98:	000d      	movs	r5, r1
 8001d9a:	17c8      	asrs	r0, r1, #31
 8001d9c:	213f      	movs	r1, #63	@ 0x3f
 8001d9e:	4008      	ands	r0, r1
 8001da0:	0002      	movs	r2, r0
 8001da2:	0033      	movs	r3, r6
 8001da4:	1912      	adds	r2, r2, r4
 8001da6:	416b      	adcs	r3, r5
 8001da8:	069c      	lsls	r4, r3, #26
 8001daa:	0990      	lsrs	r0, r2, #6
 8001dac:	4320      	orrs	r0, r4
 8001dae:	893c      	ldrh	r4, [r7, #8]
 8001db0:	1199      	asrs	r1, r3, #6
 8001db2:	0462      	lsls	r2, r4, #17
 8001db4:	0be3      	lsrs	r3, r4, #15
 8001db6:	1880      	adds	r0, r0, r2
 8001db8:	4159      	adcs	r1, r3
 8001dba:	9a00      	ldr	r2, [sp, #0]
 8001dbc:	9b01      	ldr	r3, [sp, #4]
 8001dbe:	9008      	str	r0, [sp, #32]
 8001dc0:	9109      	str	r1, [sp, #36]	@ 0x24
 8001dc2:	0031      	movs	r1, r6
 8001dc4:	8978      	ldrh	r0, [r7, #10]
 8001dc6:	f7fe fb55 	bl	8000474 <__aeabi_lmul>
 8001dca:	0004      	movs	r4, r0
 8001dcc:	000d      	movs	r5, r1
 8001dce:	17c8      	asrs	r0, r1, #31
 8001dd0:	217f      	movs	r1, #127	@ 0x7f
 8001dd2:	4008      	ands	r0, r1
 8001dd4:	0002      	movs	r2, r0
 8001dd6:	0033      	movs	r3, r6
 8001dd8:	1912      	adds	r2, r2, r4
 8001dda:	416b      	adcs	r3, r5
 8001ddc:	065c      	lsls	r4, r3, #25
 8001dde:	11d9      	asrs	r1, r3, #7
 8001de0:	0033      	movs	r3, r6
 8001de2:	09d0      	lsrs	r0, r2, #7
 8001de4:	4320      	orrs	r0, r4
 8001de6:	88fc      	ldrh	r4, [r7, #6]
 8001de8:	0422      	lsls	r2, r4, #16
 8001dea:	1880      	adds	r0, r0, r2
 8001dec:	4159      	adcs	r1, r3
 8001dee:	23fa      	movs	r3, #250	@ 0xfa
 8001df0:	9a04      	ldr	r2, [sp, #16]
 8001df2:	900a      	str	r0, [sp, #40]	@ 0x28
 8001df4:	910b      	str	r1, [sp, #44]	@ 0x2c
 8001df6:	00db      	lsls	r3, r3, #3
 8001df8:	429a      	cmp	r2, r3
 8001dfa:	db00      	blt.n	8001dfe <ms5607_read_values+0x12a>
 8001dfc:	e07b      	b.n	8001ef6 <ms5607_read_values+0x222>
 8001dfe:	9a00      	ldr	r2, [sp, #0]
 8001e00:	9b01      	ldr	r3, [sp, #4]
 8001e02:	0010      	movs	r0, r2
 8001e04:	0019      	movs	r1, r3
 8001e06:	f7fe fb35 	bl	8000474 <__aeabi_lmul>
 8001e0a:	0033      	movs	r3, r6
 8001e0c:	0004      	movs	r4, r0
 8001e0e:	000d      	movs	r5, r1
 8001e10:	17c9      	asrs	r1, r1, #31
 8001e12:	0049      	lsls	r1, r1, #1
 8001e14:	084a      	lsrs	r2, r1, #1
 8001e16:	1912      	adds	r2, r2, r4
 8001e18:	416b      	adcs	r3, r5
 8001e1a:	0011      	movs	r1, r2
 8001e1c:	005b      	lsls	r3, r3, #1
 8001e1e:	0fca      	lsrs	r2, r1, #31
 8001e20:	4313      	orrs	r3, r2
 8001e22:	9306      	str	r3, [sp, #24]
 8001e24:	9a02      	ldr	r2, [sp, #8]
 8001e26:	9b05      	ldr	r3, [sp, #20]
 8001e28:	0010      	movs	r0, r2
 8001e2a:	0019      	movs	r1, r3
 8001e2c:	f7fe fb22 	bl	8000474 <__aeabi_lmul>
 8001e30:	223d      	movs	r2, #61	@ 0x3d
 8001e32:	2300      	movs	r3, #0
 8001e34:	0004      	movs	r4, r0
 8001e36:	000d      	movs	r5, r1
 8001e38:	f7fe fb1c 	bl	8000474 <__aeabi_lmul>
 8001e3c:	070b      	lsls	r3, r1, #28
 8001e3e:	469c      	mov	ip, r3
 8001e40:	4662      	mov	r2, ip
 8001e42:	0903      	lsrs	r3, r0, #4
 8001e44:	4313      	orrs	r3, r2
 8001e46:	9300      	str	r3, [sp, #0]
 8001e48:	110b      	asrs	r3, r1, #4
 8001e4a:	9301      	str	r3, [sp, #4]
 8001e4c:	9a04      	ldr	r2, [sp, #16]
 8001e4e:	4b2e      	ldr	r3, [pc, #184]	@ (8001f08 <ms5607_read_values+0x234>)
 8001e50:	1924      	adds	r4, r4, r4
 8001e52:	416d      	adcs	r5, r5
 8001e54:	429a      	cmp	r2, r3
 8001e56:	da1c      	bge.n	8001e92 <ms5607_read_values+0x1be>
 8001e58:	4a2c      	ldr	r2, [pc, #176]	@ (8001f0c <ms5607_read_values+0x238>)
 8001e5a:	9b02      	ldr	r3, [sp, #8]
 8001e5c:	4694      	mov	ip, r2
 8001e5e:	4463      	add	r3, ip
 8001e60:	435b      	muls	r3, r3
 8001e62:	9302      	str	r3, [sp, #8]
 8001e64:	17db      	asrs	r3, r3, #31
 8001e66:	9305      	str	r3, [sp, #20]
 8001e68:	220f      	movs	r2, #15
 8001e6a:	2300      	movs	r3, #0
 8001e6c:	9802      	ldr	r0, [sp, #8]
 8001e6e:	9905      	ldr	r1, [sp, #20]
 8001e70:	f7fe fb00 	bl	8000474 <__aeabi_lmul>
 8001e74:	9a00      	ldr	r2, [sp, #0]
 8001e76:	9b01      	ldr	r3, [sp, #4]
 8001e78:	1812      	adds	r2, r2, r0
 8001e7a:	414b      	adcs	r3, r1
 8001e7c:	9805      	ldr	r0, [sp, #20]
 8001e7e:	9200      	str	r2, [sp, #0]
 8001e80:	9301      	str	r3, [sp, #4]
 8001e82:	9b02      	ldr	r3, [sp, #8]
 8001e84:	0f59      	lsrs	r1, r3, #29
 8001e86:	00c3      	lsls	r3, r0, #3
 8001e88:	430b      	orrs	r3, r1
 8001e8a:	9902      	ldr	r1, [sp, #8]
 8001e8c:	00ca      	lsls	r2, r1, #3
 8001e8e:	18a4      	adds	r4, r4, r2
 8001e90:	415d      	adcs	r5, r3
 8001e92:	980a      	ldr	r0, [sp, #40]	@ 0x28
 8001e94:	990b      	ldr	r1, [sp, #44]	@ 0x2c
 8001e96:	9a06      	ldr	r2, [sp, #24]
 8001e98:	9b04      	ldr	r3, [sp, #16]
 8001e9a:	1b00      	subs	r0, r0, r4
 8001e9c:	41a9      	sbcs	r1, r5
 8001e9e:	1a9b      	subs	r3, r3, r2
 8001ea0:	617b      	str	r3, [r7, #20]
 8001ea2:	9a07      	ldr	r2, [sp, #28]
 8001ea4:	2300      	movs	r3, #0
 8001ea6:	f7fe fae5 	bl	8000474 <__aeabi_lmul>
 8001eaa:	000b      	movs	r3, r1
 8001eac:	17c9      	asrs	r1, r1, #31
 8001eae:	02c9      	lsls	r1, r1, #11
 8001eb0:	0ac9      	lsrs	r1, r1, #11
 8001eb2:	9102      	str	r1, [sp, #8]
 8001eb4:	2100      	movs	r1, #0
 8001eb6:	0002      	movs	r2, r0
 8001eb8:	9103      	str	r1, [sp, #12]
 8001eba:	9802      	ldr	r0, [sp, #8]
 8001ebc:	9903      	ldr	r1, [sp, #12]
 8001ebe:	1812      	adds	r2, r2, r0
 8001ec0:	414b      	adcs	r3, r1
 8001ec2:	9808      	ldr	r0, [sp, #32]
 8001ec4:	9909      	ldr	r1, [sp, #36]	@ 0x24
 8001ec6:	02dc      	lsls	r4, r3, #11
 8001ec8:	0d52      	lsrs	r2, r2, #21
 8001eca:	4322      	orrs	r2, r4
 8001ecc:	9c00      	ldr	r4, [sp, #0]
 8001ece:	9d01      	ldr	r5, [sp, #4]
 8001ed0:	1b00      	subs	r0, r0, r4
 8001ed2:	41a9      	sbcs	r1, r5
 8001ed4:	155b      	asrs	r3, r3, #21
 8001ed6:	1a12      	subs	r2, r2, r0
 8001ed8:	418b      	sbcs	r3, r1
 8001eda:	0019      	movs	r1, r3
 8001edc:	0010      	movs	r0, r2
 8001ede:	17dc      	asrs	r4, r3, #31
 8001ee0:	2300      	movs	r3, #0
 8001ee2:	0464      	lsls	r4, r4, #17
 8001ee4:	0c62      	lsrs	r2, r4, #17
 8001ee6:	1812      	adds	r2, r2, r0
 8001ee8:	414b      	adcs	r3, r1
 8001eea:	0011      	movs	r1, r2
 8001eec:	045b      	lsls	r3, r3, #17
 8001eee:	0bca      	lsrs	r2, r1, #15
 8001ef0:	431a      	orrs	r2, r3
 8001ef2:	61ba      	str	r2, [r7, #24]
 8001ef4:	e706      	b.n	8001d04 <ms5607_read_values+0x30>
 8001ef6:	2400      	movs	r4, #0
 8001ef8:	2500      	movs	r5, #0
 8001efa:	9606      	str	r6, [sp, #24]
 8001efc:	9400      	str	r4, [sp, #0]
 8001efe:	9501      	str	r5, [sp, #4]
 8001f00:	e7c7      	b.n	8001e92 <ms5607_read_values+0x1be>
 8001f02:	46c0      	nop			@ (mov r8, r8)
 8001f04:	080044a4 	.word	0x080044a4
 8001f08:	fffffa24 	.word	0xfffffa24
 8001f0c:	00000dac 	.word	0x00000dac

08001f10 <toAltitude>:
 8001f10:	b510      	push	{r4, lr}
 8001f12:	4907      	ldr	r1, [pc, #28]	@ (8001f30 <toAltitude+0x20>)
 8001f14:	f7fe fcce 	bl	80008b4 <__aeabi_fdiv>
 8001f18:	4906      	ldr	r1, [pc, #24]	@ (8001f34 <toAltitude+0x24>)
 8001f1a:	f001 fdc3 	bl	8003aa4 <powf>
 8001f1e:	1c01      	adds	r1, r0, #0
 8001f20:	20fe      	movs	r0, #254	@ 0xfe
 8001f22:	0580      	lsls	r0, r0, #22
 8001f24:	f7fe ffee 	bl	8000f04 <__aeabi_fsub>
 8001f28:	4903      	ldr	r1, [pc, #12]	@ (8001f38 <toAltitude+0x28>)
 8001f2a:	f7fe fe91 	bl	8000c50 <__aeabi_fmul>
 8001f2e:	bd10      	pop	{r4, pc}
 8001f30:	47c5e680 	.word	0x47c5e680
 8001f34:	3e42dcae 	.word	0x3e42dcae
 8001f38:	472d2a00 	.word	0x472d2a00

08001f3c <HAL_MspInit>:
 8001f3c:	2101      	movs	r1, #1
 8001f3e:	4b0a      	ldr	r3, [pc, #40]	@ (8001f68 <HAL_MspInit+0x2c>)
 8001f40:	b082      	sub	sp, #8
 8001f42:	6c1a      	ldr	r2, [r3, #64]	@ 0x40
 8001f44:	430a      	orrs	r2, r1
 8001f46:	641a      	str	r2, [r3, #64]	@ 0x40
 8001f48:	6c1a      	ldr	r2, [r3, #64]	@ 0x40
 8001f4a:	400a      	ands	r2, r1
 8001f4c:	2180      	movs	r1, #128	@ 0x80
 8001f4e:	9200      	str	r2, [sp, #0]
 8001f50:	9a00      	ldr	r2, [sp, #0]
 8001f52:	6bda      	ldr	r2, [r3, #60]	@ 0x3c
 8001f54:	0549      	lsls	r1, r1, #21
 8001f56:	430a      	orrs	r2, r1
 8001f58:	63da      	str	r2, [r3, #60]	@ 0x3c
 8001f5a:	6bdb      	ldr	r3, [r3, #60]	@ 0x3c
 8001f5c:	400b      	ands	r3, r1
 8001f5e:	9301      	str	r3, [sp, #4]
 8001f60:	9b01      	ldr	r3, [sp, #4]
 8001f62:	b002      	add	sp, #8
 8001f64:	4770      	bx	lr
 8001f66:	46c0      	nop			@ (mov r8, r8)
 8001f68:	40021000 	.word	0x40021000

08001f6c <HAL_I2C_MspInit>:
 8001f6c:	b510      	push	{r4, lr}
 8001f6e:	0004      	movs	r4, r0
 8001f70:	b08e      	sub	sp, #56	@ 0x38
 8001f72:	2214      	movs	r2, #20
 8001f74:	2100      	movs	r1, #0
 8001f76:	a803      	add	r0, sp, #12
 8001f78:	f001 fd62 	bl	8003a40 <memset>
 8001f7c:	2218      	movs	r2, #24
 8001f7e:	2100      	movs	r1, #0
 8001f80:	a808      	add	r0, sp, #32
 8001f82:	f001 fd5d 	bl	8003a40 <memset>
 8001f86:	4b17      	ldr	r3, [pc, #92]	@ (8001fe4 <HAL_I2C_MspInit+0x78>)
 8001f88:	6822      	ldr	r2, [r4, #0]
 8001f8a:	429a      	cmp	r2, r3
 8001f8c:	d128      	bne.n	8001fe0 <HAL_I2C_MspInit+0x74>
 8001f8e:	2320      	movs	r3, #32
 8001f90:	a808      	add	r0, sp, #32
 8001f92:	9308      	str	r3, [sp, #32]
 8001f94:	f001 f88e 	bl	80030b4 <HAL_RCCEx_PeriphCLKConfig>
 8001f98:	2800      	cmp	r0, #0
 8001f9a:	d001      	beq.n	8001fa0 <HAL_I2C_MspInit+0x34>
 8001f9c:	f7ff fd21 	bl	80019e2 <Error_Handler>
 8001fa0:	2202      	movs	r2, #2
 8001fa2:	4c11      	ldr	r4, [pc, #68]	@ (8001fe8 <HAL_I2C_MspInit+0x7c>)
 8001fa4:	4811      	ldr	r0, [pc, #68]	@ (8001fec <HAL_I2C_MspInit+0x80>)
 8001fa6:	6b63      	ldr	r3, [r4, #52]	@ 0x34
 8001fa8:	a903      	add	r1, sp, #12
 8001faa:	4313      	orrs	r3, r2
 8001fac:	6363      	str	r3, [r4, #52]	@ 0x34
 8001fae:	6b63      	ldr	r3, [r4, #52]	@ 0x34
 8001fb0:	4013      	ands	r3, r2
 8001fb2:	9301      	str	r3, [sp, #4]
 8001fb4:	9b01      	ldr	r3, [sp, #4]
 8001fb6:	23c0      	movs	r3, #192	@ 0xc0
 8001fb8:	009b      	lsls	r3, r3, #2
 8001fba:	9303      	str	r3, [sp, #12]
 8001fbc:	2312      	movs	r3, #18
 8001fbe:	9304      	str	r3, [sp, #16]
 8001fc0:	2300      	movs	r3, #0
 8001fc2:	9305      	str	r3, [sp, #20]
 8001fc4:	9306      	str	r3, [sp, #24]
 8001fc6:	3306      	adds	r3, #6
 8001fc8:	9307      	str	r3, [sp, #28]
 8001fca:	f000 f923 	bl	8002214 <HAL_GPIO_Init>
 8001fce:	2280      	movs	r2, #128	@ 0x80
 8001fd0:	6be3      	ldr	r3, [r4, #60]	@ 0x3c
 8001fd2:	0392      	lsls	r2, r2, #14
 8001fd4:	4313      	orrs	r3, r2
 8001fd6:	63e3      	str	r3, [r4, #60]	@ 0x3c
 8001fd8:	6be3      	ldr	r3, [r4, #60]	@ 0x3c
 8001fda:	4013      	ands	r3, r2
 8001fdc:	9302      	str	r3, [sp, #8]
 8001fde:	9b02      	ldr	r3, [sp, #8]
 8001fe0:	b00e      	add	sp, #56	@ 0x38
 8001fe2:	bd10      	pop	{r4, pc}
 8001fe4:	40005400 	.word	0x40005400
 8001fe8:	40021000 	.word	0x40021000
 8001fec:	50000400 	.word	0x50000400

08001ff0 <HAL_TIM_Base_MspInit>:
 8001ff0:	4b07      	ldr	r3, [pc, #28]	@ (8002010 <HAL_TIM_Base_MspInit+0x20>)
 8001ff2:	6802      	ldr	r2, [r0, #0]
 8001ff4:	b082      	sub	sp, #8
 8001ff6:	429a      	cmp	r2, r3
 8001ff8:	d108      	bne.n	800200c <HAL_TIM_Base_MspInit+0x1c>
 8001ffa:	2102      	movs	r1, #2
 8001ffc:	4b05      	ldr	r3, [pc, #20]	@ (8002014 <HAL_TIM_Base_MspInit+0x24>)
 8001ffe:	6bda      	ldr	r2, [r3, #60]	@ 0x3c
 8002000:	430a      	orrs	r2, r1
 8002002:	63da      	str	r2, [r3, #60]	@ 0x3c
 8002004:	6bdb      	ldr	r3, [r3, #60]	@ 0x3c
 8002006:	400b      	ands	r3, r1
 8002008:	9301      	str	r3, [sp, #4]
 800200a:	9b01      	ldr	r3, [sp, #4]
 800200c:	b002      	add	sp, #8
 800200e:	4770      	bx	lr
 8002010:	40000400 	.word	0x40000400
 8002014:	40021000 	.word	0x40021000

08002018 <HAL_TIM_MspPostInit>:
 8002018:	b510      	push	{r4, lr}
 800201a:	0004      	movs	r4, r0
 800201c:	b086      	sub	sp, #24
 800201e:	2214      	movs	r2, #20
 8002020:	2100      	movs	r1, #0
 8002022:	a801      	add	r0, sp, #4
 8002024:	f001 fd0c 	bl	8003a40 <memset>
 8002028:	4b0c      	ldr	r3, [pc, #48]	@ (800205c <HAL_TIM_MspPostInit+0x44>)
 800202a:	6822      	ldr	r2, [r4, #0]
 800202c:	429a      	cmp	r2, r3
 800202e:	d112      	bne.n	8002056 <HAL_TIM_MspPostInit+0x3e>
 8002030:	2301      	movs	r3, #1
 8002032:	4a0b      	ldr	r2, [pc, #44]	@ (8002060 <HAL_TIM_MspPostInit+0x48>)
 8002034:	20a0      	movs	r0, #160	@ 0xa0
 8002036:	6b51      	ldr	r1, [r2, #52]	@ 0x34
 8002038:	05c0      	lsls	r0, r0, #23
 800203a:	4319      	orrs	r1, r3
 800203c:	6351      	str	r1, [r2, #52]	@ 0x34
 800203e:	6b52      	ldr	r2, [r2, #52]	@ 0x34
 8002040:	a901      	add	r1, sp, #4
 8002042:	401a      	ands	r2, r3
 8002044:	9200      	str	r2, [sp, #0]
 8002046:	9a00      	ldr	r2, [sp, #0]
 8002048:	2240      	movs	r2, #64	@ 0x40
 800204a:	9201      	str	r2, [sp, #4]
 800204c:	3a3e      	subs	r2, #62	@ 0x3e
 800204e:	9202      	str	r2, [sp, #8]
 8002050:	9305      	str	r3, [sp, #20]
 8002052:	f000 f8df 	bl	8002214 <HAL_GPIO_Init>
 8002056:	b006      	add	sp, #24
 8002058:	bd10      	pop	{r4, pc}
 800205a:	46c0      	nop			@ (mov r8, r8)
 800205c:	40000400 	.word	0x40000400
 8002060:	40021000 	.word	0x40021000

08002064 <NMI_Handler>:
 8002064:	e7fe      	b.n	8002064 <NMI_Handler>

08002066 <HardFault_Handler>:
 8002066:	e7fe      	b.n	8002066 <HardFault_Handler>

08002068 <SVC_Handler>:
 8002068:	4770      	bx	lr

0800206a <PendSV_Handler>:
 800206a:	4770      	bx	lr

0800206c <SysTick_Handler>:
 800206c:	b510      	push	{r4, lr}
 800206e:	f000 f869 	bl	8002144 <HAL_IncTick>
 8002072:	bd10      	pop	{r4, pc}

08002074 <SystemInit>:
 8002074:	4770      	bx	lr
	...

08002078 <Reset_Handler>:
 8002078:	480d      	ldr	r0, [pc, #52]	@ (80020b0 <LoopForever+0x2>)
 800207a:	4685      	mov	sp, r0
 800207c:	f7ff fffa 	bl	8002074 <SystemInit>
 8002080:	480c      	ldr	r0, [pc, #48]	@ (80020b4 <LoopForever+0x6>)
 8002082:	490d      	ldr	r1, [pc, #52]	@ (80020b8 <LoopForever+0xa>)
 8002084:	4a0d      	ldr	r2, [pc, #52]	@ (80020bc <LoopForever+0xe>)
 8002086:	2300      	movs	r3, #0
 8002088:	e002      	b.n	8002090 <LoopCopyDataInit>

0800208a <CopyDataInit>:
 800208a:	58d4      	ldr	r4, [r2, r3]
 800208c:	50c4      	str	r4, [r0, r3]
 800208e:	3304      	adds	r3, #4

08002090 <LoopCopyDataInit>:
 8002090:	18c4      	adds	r4, r0, r3
 8002092:	428c      	cmp	r4, r1
 8002094:	d3f9      	bcc.n	800208a <CopyDataInit>
 8002096:	4a0a      	ldr	r2, [pc, #40]	@ (80020c0 <LoopForever+0x12>)
 8002098:	4c0a      	ldr	r4, [pc, #40]	@ (80020c4 <LoopForever+0x16>)
 800209a:	2300      	movs	r3, #0
 800209c:	e001      	b.n	80020a2 <LoopFillZerobss>

0800209e <FillZerobss>:
 800209e:	6013      	str	r3, [r2, #0]
 80020a0:	3204      	adds	r2, #4

080020a2 <LoopFillZerobss>:
 80020a2:	42a2      	cmp	r2, r4
 80020a4:	d3fb      	bcc.n	800209e <FillZerobss>
 80020a6:	f001 fcd9 	bl	8003a5c <__libc_init_array>
 80020aa:	f7ff fce3 	bl	8001a74 <main>

080020ae <LoopForever>:
 80020ae:	e7fe      	b.n	80020ae <LoopForever>
 80020b0:	20002000 	.word	0x20002000
 80020b4:	20000000 	.word	0x20000000
 80020b8:	2000005c 	.word	0x2000005c
 80020bc:	08004510 	.word	0x08004510
 80020c0:	2000005c 	.word	0x2000005c
 80020c4:	20000280 	.word	0x20000280

080020c8 <ADC1_IRQHandler>:
 80020c8:	e7fe      	b.n	80020c8 <ADC1_IRQHandler>
	...

080020cc <HAL_InitTick>:
 80020cc:	b570      	push	{r4, r5, r6, lr}
 80020ce:	4b10      	ldr	r3, [pc, #64]	@ (8002110 <HAL_InitTick+0x44>)
 80020d0:	0005      	movs	r5, r0
 80020d2:	7819      	ldrb	r1, [r3, #0]
 80020d4:	2900      	cmp	r1, #0
 80020d6:	d101      	bne.n	80020dc <HAL_InitTick+0x10>
 80020d8:	2001      	movs	r0, #1
 80020da:	bd70      	pop	{r4, r5, r6, pc}
 80020dc:	20fa      	movs	r0, #250	@ 0xfa
 80020de:	0080      	lsls	r0, r0, #2
 80020e0:	f7fe f818 	bl	8000114 <__udivsi3>
 80020e4:	4c0b      	ldr	r4, [pc, #44]	@ (8002114 <HAL_InitTick+0x48>)
 80020e6:	0001      	movs	r1, r0
 80020e8:	6820      	ldr	r0, [r4, #0]
 80020ea:	f7fe f813 	bl	8000114 <__udivsi3>
 80020ee:	f000 f877 	bl	80021e0 <HAL_SYSTICK_Config>
 80020f2:	1e04      	subs	r4, r0, #0
 80020f4:	d1f0      	bne.n	80020d8 <HAL_InitTick+0xc>
 80020f6:	2d03      	cmp	r5, #3
 80020f8:	d8ee      	bhi.n	80020d8 <HAL_InitTick+0xc>
 80020fa:	0002      	movs	r2, r0
 80020fc:	2001      	movs	r0, #1
 80020fe:	0029      	movs	r1, r5
 8002100:	4240      	negs	r0, r0
 8002102:	f000 f843 	bl	800218c <HAL_NVIC_SetPriority>
 8002106:	4b04      	ldr	r3, [pc, #16]	@ (8002118 <HAL_InitTick+0x4c>)
 8002108:	0020      	movs	r0, r4
 800210a:	601d      	str	r5, [r3, #0]
 800210c:	e7e5      	b.n	80020da <HAL_InitTick+0xe>
 800210e:	46c0      	nop			@ (mov r8, r8)
 8002110:	20000004 	.word	0x20000004
 8002114:	20000000 	.word	0x20000000
 8002118:	20000008 	.word	0x20000008

0800211c <HAL_Init>:
 800211c:	2380      	movs	r3, #128	@ 0x80
 800211e:	4a08      	ldr	r2, [pc, #32]	@ (8002140 <HAL_Init+0x24>)
 8002120:	005b      	lsls	r3, r3, #1
 8002122:	6811      	ldr	r1, [r2, #0]
 8002124:	b510      	push	{r4, lr}
 8002126:	430b      	orrs	r3, r1
 8002128:	2003      	movs	r0, #3
 800212a:	6013      	str	r3, [r2, #0]
 800212c:	f7ff ffce 	bl	80020cc <HAL_InitTick>
 8002130:	1e04      	subs	r4, r0, #0
 8002132:	d103      	bne.n	800213c <HAL_Init+0x20>
 8002134:	f7ff ff02 	bl	8001f3c <HAL_MspInit>
 8002138:	0020      	movs	r0, r4
 800213a:	bd10      	pop	{r4, pc}
 800213c:	2401      	movs	r4, #1
 800213e:	e7fb      	b.n	8002138 <HAL_Init+0x1c>
 8002140:	40022000 	.word	0x40022000

08002144 <HAL_IncTick>:
 8002144:	4a03      	ldr	r2, [pc, #12]	@ (8002154 <HAL_IncTick+0x10>)
 8002146:	4b04      	ldr	r3, [pc, #16]	@ (8002158 <HAL_IncTick+0x14>)
 8002148:	6811      	ldr	r1, [r2, #0]
 800214a:	781b      	ldrb	r3, [r3, #0]
 800214c:	185b      	adds	r3, r3, r1
 800214e:	6013      	str	r3, [r2, #0]
 8002150:	4770      	bx	lr
 8002152:	46c0      	nop			@ (mov r8, r8)
 8002154:	20000144 	.word	0x20000144
 8002158:	20000004 	.word	0x20000004

0800215c <HAL_GetTick>:
 800215c:	4b01      	ldr	r3, [pc, #4]	@ (8002164 <HAL_GetTick+0x8>)
 800215e:	6818      	ldr	r0, [r3, #0]
 8002160:	4770      	bx	lr
 8002162:	46c0      	nop			@ (mov r8, r8)
 8002164:	20000144 	.word	0x20000144

08002168 <HAL_Delay>:
 8002168:	b570      	push	{r4, r5, r6, lr}
 800216a:	0004      	movs	r4, r0
 800216c:	f7ff fff6 	bl	800215c <HAL_GetTick>
 8002170:	0005      	movs	r5, r0
 8002172:	1c63      	adds	r3, r4, #1
 8002174:	d002      	beq.n	800217c <HAL_Delay+0x14>
 8002176:	4b04      	ldr	r3, [pc, #16]	@ (8002188 <HAL_Delay+0x20>)
 8002178:	781b      	ldrb	r3, [r3, #0]
 800217a:	18e4      	adds	r4, r4, r3
 800217c:	f7ff ffee 	bl	800215c <HAL_GetTick>
 8002180:	1b40      	subs	r0, r0, r5
 8002182:	42a0      	cmp	r0, r4
 8002184:	d3fa      	bcc.n	800217c <HAL_Delay+0x14>
 8002186:	bd70      	pop	{r4, r5, r6, pc}
 8002188:	20000004 	.word	0x20000004

0800218c <HAL_NVIC_SetPriority>:
 800218c:	b510      	push	{r4, lr}
 800218e:	24ff      	movs	r4, #255	@ 0xff
 8002190:	2203      	movs	r2, #3
 8002192:	000b      	movs	r3, r1
 8002194:	0021      	movs	r1, r4
 8002196:	4002      	ands	r2, r0
 8002198:	00d2      	lsls	r2, r2, #3
 800219a:	4091      	lsls	r1, r2
 800219c:	019b      	lsls	r3, r3, #6
 800219e:	4023      	ands	r3, r4
 80021a0:	43c9      	mvns	r1, r1
 80021a2:	4093      	lsls	r3, r2
 80021a4:	2800      	cmp	r0, #0
 80021a6:	db0a      	blt.n	80021be <HAL_NVIC_SetPriority+0x32>
 80021a8:	24c0      	movs	r4, #192	@ 0xc0
 80021aa:	4a0b      	ldr	r2, [pc, #44]	@ (80021d8 <HAL_NVIC_SetPriority+0x4c>)
 80021ac:	0880      	lsrs	r0, r0, #2
 80021ae:	0080      	lsls	r0, r0, #2
 80021b0:	1880      	adds	r0, r0, r2
 80021b2:	00a4      	lsls	r4, r4, #2
 80021b4:	5902      	ldr	r2, [r0, r4]
 80021b6:	400a      	ands	r2, r1
 80021b8:	4313      	orrs	r3, r2
 80021ba:	5103      	str	r3, [r0, r4]
 80021bc:	bd10      	pop	{r4, pc}
 80021be:	220f      	movs	r2, #15
 80021c0:	4010      	ands	r0, r2
 80021c2:	3808      	subs	r0, #8
 80021c4:	4a05      	ldr	r2, [pc, #20]	@ (80021dc <HAL_NVIC_SetPriority+0x50>)
 80021c6:	0880      	lsrs	r0, r0, #2
 80021c8:	0080      	lsls	r0, r0, #2
 80021ca:	1880      	adds	r0, r0, r2
 80021cc:	69c2      	ldr	r2, [r0, #28]
 80021ce:	4011      	ands	r1, r2
 80021d0:	4319      	orrs	r1, r3
 80021d2:	61c1      	str	r1, [r0, #28]
 80021d4:	e7f2      	b.n	80021bc <HAL_NVIC_SetPriority+0x30>
 80021d6:	46c0      	nop			@ (mov r8, r8)
 80021d8:	e000e100 	.word	0xe000e100
 80021dc:	e000ed00 	.word	0xe000ed00

080021e0 <HAL_SYSTICK_Config>:
 80021e0:	2280      	movs	r2, #128	@ 0x80
 80021e2:	1e43      	subs	r3, r0, #1
 80021e4:	0452      	lsls	r2, r2, #17
 80021e6:	2001      	movs	r0, #1
 80021e8:	4293      	cmp	r3, r2
 80021ea:	d20d      	bcs.n	8002208 <HAL_SYSTICK_Config+0x28>
 80021ec:	21c0      	movs	r1, #192	@ 0xc0
 80021ee:	4a07      	ldr	r2, [pc, #28]	@ (800220c <HAL_SYSTICK_Config+0x2c>)
 80021f0:	4807      	ldr	r0, [pc, #28]	@ (8002210 <HAL_SYSTICK_Config+0x30>)
 80021f2:	6053      	str	r3, [r2, #4]
 80021f4:	6a03      	ldr	r3, [r0, #32]
 80021f6:	0609      	lsls	r1, r1, #24
 80021f8:	021b      	lsls	r3, r3, #8
 80021fa:	0a1b      	lsrs	r3, r3, #8
 80021fc:	430b      	orrs	r3, r1
 80021fe:	6203      	str	r3, [r0, #32]
 8002200:	2000      	movs	r0, #0
 8002202:	2307      	movs	r3, #7
 8002204:	6090      	str	r0, [r2, #8]
 8002206:	6013      	str	r3, [r2, #0]
 8002208:	4770      	bx	lr
 800220a:	46c0      	nop			@ (mov r8, r8)
 800220c:	e000e010 	.word	0xe000e010
 8002210:	e000ed00 	.word	0xe000ed00

08002214 <HAL_GPIO_Init>:
 8002214:	2300      	movs	r3, #0
 8002216:	b5f0      	push	{r4, r5, r6, r7, lr}
 8002218:	b085      	sub	sp, #20
 800221a:	680a      	ldr	r2, [r1, #0]
 800221c:	0014      	movs	r4, r2
 800221e:	40dc      	lsrs	r4, r3
 8002220:	d101      	bne.n	8002226 <HAL_GPIO_Init+0x12>
 8002222:	b005      	add	sp, #20
 8002224:	bdf0      	pop	{r4, r5, r6, r7, pc}
 8002226:	2501      	movs	r5, #1
 8002228:	0014      	movs	r4, r2
 800222a:	409d      	lsls	r5, r3
 800222c:	402c      	ands	r4, r5
 800222e:	9400      	str	r4, [sp, #0]
 8002230:	422a      	tst	r2, r5
 8002232:	d100      	bne.n	8002236 <HAL_GPIO_Init+0x22>
 8002234:	e091      	b.n	800235a <HAL_GPIO_Init+0x146>
 8002236:	684a      	ldr	r2, [r1, #4]
 8002238:	005f      	lsls	r7, r3, #1
 800223a:	4694      	mov	ip, r2
 800223c:	2203      	movs	r2, #3
 800223e:	4664      	mov	r4, ip
 8002240:	4022      	ands	r2, r4
 8002242:	2403      	movs	r4, #3
 8002244:	40bc      	lsls	r4, r7
 8002246:	43e4      	mvns	r4, r4
 8002248:	9401      	str	r4, [sp, #4]
 800224a:	1e54      	subs	r4, r2, #1
 800224c:	2c01      	cmp	r4, #1
 800224e:	d82e      	bhi.n	80022ae <HAL_GPIO_Init+0x9a>
 8002250:	6886      	ldr	r6, [r0, #8]
 8002252:	9c01      	ldr	r4, [sp, #4]
 8002254:	4026      	ands	r6, r4
 8002256:	68cc      	ldr	r4, [r1, #12]
 8002258:	40bc      	lsls	r4, r7
 800225a:	4334      	orrs	r4, r6
 800225c:	6084      	str	r4, [r0, #8]
 800225e:	6844      	ldr	r4, [r0, #4]
 8002260:	2601      	movs	r6, #1
 8002262:	43ac      	bics	r4, r5
 8002264:	0025      	movs	r5, r4
 8002266:	4664      	mov	r4, ip
 8002268:	0924      	lsrs	r4, r4, #4
 800226a:	4034      	ands	r4, r6
 800226c:	409c      	lsls	r4, r3
 800226e:	432c      	orrs	r4, r5
 8002270:	6044      	str	r4, [r0, #4]
 8002272:	68c5      	ldr	r5, [r0, #12]
 8002274:	9c01      	ldr	r4, [sp, #4]
 8002276:	4025      	ands	r5, r4
 8002278:	688c      	ldr	r4, [r1, #8]
 800227a:	40bc      	lsls	r4, r7
 800227c:	432c      	orrs	r4, r5
 800227e:	60c4      	str	r4, [r0, #12]
 8002280:	2a02      	cmp	r2, #2
 8002282:	d116      	bne.n	80022b2 <HAL_GPIO_Init+0x9e>
 8002284:	2507      	movs	r5, #7
 8002286:	260f      	movs	r6, #15
 8002288:	401d      	ands	r5, r3
 800228a:	00ad      	lsls	r5, r5, #2
 800228c:	40ae      	lsls	r6, r5
 800228e:	08dc      	lsrs	r4, r3, #3
 8002290:	00a4      	lsls	r4, r4, #2
 8002292:	1904      	adds	r4, r0, r4
 8002294:	9402      	str	r4, [sp, #8]
 8002296:	6a24      	ldr	r4, [r4, #32]
 8002298:	9603      	str	r6, [sp, #12]
 800229a:	0026      	movs	r6, r4
 800229c:	9c03      	ldr	r4, [sp, #12]
 800229e:	43a6      	bics	r6, r4
 80022a0:	0034      	movs	r4, r6
 80022a2:	690e      	ldr	r6, [r1, #16]
 80022a4:	40ae      	lsls	r6, r5
 80022a6:	4326      	orrs	r6, r4
 80022a8:	9c02      	ldr	r4, [sp, #8]
 80022aa:	6226      	str	r6, [r4, #32]
 80022ac:	e001      	b.n	80022b2 <HAL_GPIO_Init+0x9e>
 80022ae:	2a03      	cmp	r2, #3
 80022b0:	d1df      	bne.n	8002272 <HAL_GPIO_Init+0x5e>
 80022b2:	40ba      	lsls	r2, r7
 80022b4:	6804      	ldr	r4, [r0, #0]
 80022b6:	9d01      	ldr	r5, [sp, #4]
 80022b8:	4025      	ands	r5, r4
 80022ba:	432a      	orrs	r2, r5
 80022bc:	24c0      	movs	r4, #192	@ 0xc0
 80022be:	6002      	str	r2, [r0, #0]
 80022c0:	4662      	mov	r2, ip
 80022c2:	02a4      	lsls	r4, r4, #10
 80022c4:	4222      	tst	r2, r4
 80022c6:	d048      	beq.n	800235a <HAL_GPIO_Init+0x146>
 80022c8:	4a25      	ldr	r2, [pc, #148]	@ (8002360 <HAL_GPIO_Init+0x14c>)
 80022ca:	2503      	movs	r5, #3
 80022cc:	089c      	lsrs	r4, r3, #2
 80022ce:	00a4      	lsls	r4, r4, #2
 80022d0:	18a4      	adds	r4, r4, r2
 80022d2:	220f      	movs	r2, #15
 80022d4:	401d      	ands	r5, r3
 80022d6:	00ed      	lsls	r5, r5, #3
 80022d8:	40aa      	lsls	r2, r5
 80022da:	27a0      	movs	r7, #160	@ 0xa0
 80022dc:	6e26      	ldr	r6, [r4, #96]	@ 0x60
 80022de:	05ff      	lsls	r7, r7, #23
 80022e0:	4396      	bics	r6, r2
 80022e2:	2200      	movs	r2, #0
 80022e4:	42b8      	cmp	r0, r7
 80022e6:	d00c      	beq.n	8002302 <HAL_GPIO_Init+0xee>
 80022e8:	4f1e      	ldr	r7, [pc, #120]	@ (8002364 <HAL_GPIO_Init+0x150>)
 80022ea:	3201      	adds	r2, #1
 80022ec:	42b8      	cmp	r0, r7
 80022ee:	d008      	beq.n	8002302 <HAL_GPIO_Init+0xee>
 80022f0:	4f1d      	ldr	r7, [pc, #116]	@ (8002368 <HAL_GPIO_Init+0x154>)
 80022f2:	3201      	adds	r2, #1
 80022f4:	42b8      	cmp	r0, r7
 80022f6:	d004      	beq.n	8002302 <HAL_GPIO_Init+0xee>
 80022f8:	4f1c      	ldr	r7, [pc, #112]	@ (800236c <HAL_GPIO_Init+0x158>)
 80022fa:	3203      	adds	r2, #3
 80022fc:	42b8      	cmp	r0, r7
 80022fe:	d100      	bne.n	8002302 <HAL_GPIO_Init+0xee>
 8002300:	3a02      	subs	r2, #2
 8002302:	40aa      	lsls	r2, r5
 8002304:	4667      	mov	r7, ip
 8002306:	4332      	orrs	r2, r6
 8002308:	6622      	str	r2, [r4, #96]	@ 0x60
 800230a:	4c15      	ldr	r4, [pc, #84]	@ (8002360 <HAL_GPIO_Init+0x14c>)
 800230c:	9a00      	ldr	r2, [sp, #0]
 800230e:	6826      	ldr	r6, [r4, #0]
 8002310:	9d00      	ldr	r5, [sp, #0]
 8002312:	43d2      	mvns	r2, r2
 8002314:	4335      	orrs	r5, r6
 8002316:	02ff      	lsls	r7, r7, #11
 8002318:	d401      	bmi.n	800231e <HAL_GPIO_Init+0x10a>
 800231a:	0035      	movs	r5, r6
 800231c:	4015      	ands	r5, r2
 800231e:	4667      	mov	r7, ip
 8002320:	6025      	str	r5, [r4, #0]
 8002322:	6866      	ldr	r6, [r4, #4]
 8002324:	9d00      	ldr	r5, [sp, #0]
 8002326:	4335      	orrs	r5, r6
 8002328:	02bf      	lsls	r7, r7, #10
 800232a:	d401      	bmi.n	8002330 <HAL_GPIO_Init+0x11c>
 800232c:	0035      	movs	r5, r6
 800232e:	4015      	ands	r5, r2
 8002330:	4667      	mov	r7, ip
 8002332:	6065      	str	r5, [r4, #4]
 8002334:	4c0e      	ldr	r4, [pc, #56]	@ (8002370 <HAL_GPIO_Init+0x15c>)
 8002336:	9d00      	ldr	r5, [sp, #0]
 8002338:	6fe6      	ldr	r6, [r4, #124]	@ 0x7c
 800233a:	4335      	orrs	r5, r6
 800233c:	03bf      	lsls	r7, r7, #14
 800233e:	d401      	bmi.n	8002344 <HAL_GPIO_Init+0x130>
 8002340:	0035      	movs	r5, r6
 8002342:	4015      	ands	r5, r2
 8002344:	4667      	mov	r7, ip
 8002346:	67e5      	str	r5, [r4, #124]	@ 0x7c
 8002348:	4c0a      	ldr	r4, [pc, #40]	@ (8002374 <HAL_GPIO_Init+0x160>)
 800234a:	9e00      	ldr	r6, [sp, #0]
 800234c:	6fe5      	ldr	r5, [r4, #124]	@ 0x7c
 800234e:	432e      	orrs	r6, r5
 8002350:	03ff      	lsls	r7, r7, #15
 8002352:	d401      	bmi.n	8002358 <HAL_GPIO_Init+0x144>
 8002354:	4015      	ands	r5, r2
 8002356:	002e      	movs	r6, r5
 8002358:	67e6      	str	r6, [r4, #124]	@ 0x7c
 800235a:	3301      	adds	r3, #1
 800235c:	e75d      	b.n	800221a <HAL_GPIO_Init+0x6>
 800235e:	46c0      	nop			@ (mov r8, r8)
 8002360:	40021800 	.word	0x40021800
 8002364:	50000400 	.word	0x50000400
 8002368:	50000800 	.word	0x50000800
 800236c:	50000c00 	.word	0x50000c00
 8002370:	40021808 	.word	0x40021808
 8002374:	40021804 	.word	0x40021804

08002378 <HAL_GPIO_ReadPin>:
 8002378:	6900      	ldr	r0, [r0, #16]
 800237a:	4008      	ands	r0, r1
 800237c:	1e43      	subs	r3, r0, #1
 800237e:	4198      	sbcs	r0, r3
 8002380:	b2c0      	uxtb	r0, r0
 8002382:	4770      	bx	lr

08002384 <HAL_GPIO_WritePin>:
 8002384:	2a00      	cmp	r2, #0
 8002386:	d001      	beq.n	800238c <HAL_GPIO_WritePin+0x8>
 8002388:	6181      	str	r1, [r0, #24]
 800238a:	4770      	bx	lr
 800238c:	6281      	str	r1, [r0, #40]	@ 0x28
 800238e:	e7fc      	b.n	800238a <HAL_GPIO_WritePin+0x6>

08002390 <I2C_Flush_TXDR>:
 8002390:	6803      	ldr	r3, [r0, #0]
 8002392:	699a      	ldr	r2, [r3, #24]
 8002394:	0792      	lsls	r2, r2, #30
 8002396:	d501      	bpl.n	800239c <I2C_Flush_TXDR+0xc>
 8002398:	2200      	movs	r2, #0
 800239a:	629a      	str	r2, [r3, #40]	@ 0x28
 800239c:	2201      	movs	r2, #1
 800239e:	6999      	ldr	r1, [r3, #24]
 80023a0:	4211      	tst	r1, r2
 80023a2:	d102      	bne.n	80023aa <I2C_Flush_TXDR+0x1a>
 80023a4:	6999      	ldr	r1, [r3, #24]
 80023a6:	430a      	orrs	r2, r1
 80023a8:	619a      	str	r2, [r3, #24]
 80023aa:	4770      	bx	lr

080023ac <I2C_TransferConfig>:
 80023ac:	b530      	push	{r4, r5, lr}
 80023ae:	9c03      	ldr	r4, [sp, #12]
 80023b0:	6800      	ldr	r0, [r0, #0]
 80023b2:	4323      	orrs	r3, r4
 80023b4:	0412      	lsls	r2, r2, #16
 80023b6:	0589      	lsls	r1, r1, #22
 80023b8:	431a      	orrs	r2, r3
 80023ba:	0d89      	lsrs	r1, r1, #22
 80023bc:	4b05      	ldr	r3, [pc, #20]	@ (80023d4 <I2C_TransferConfig+0x28>)
 80023be:	6845      	ldr	r5, [r0, #4]
 80023c0:	430a      	orrs	r2, r1
 80023c2:	0d64      	lsrs	r4, r4, #21
 80023c4:	4323      	orrs	r3, r4
 80023c6:	0052      	lsls	r2, r2, #1
 80023c8:	439d      	bics	r5, r3
 80023ca:	0852      	lsrs	r2, r2, #1
 80023cc:	432a      	orrs	r2, r5
 80023ce:	6042      	str	r2, [r0, #4]
 80023d0:	bd30      	pop	{r4, r5, pc}
 80023d2:	46c0      	nop			@ (mov r8, r8)
 80023d4:	03ff63ff 	.word	0x03ff63ff

080023d8 <I2C_IsErrorOccurred>:
 80023d8:	b5f7      	push	{r0, r1, r2, r4, r5, r6, r7, lr}
 80023da:	0015      	movs	r5, r2
 80023dc:	6802      	ldr	r2, [r0, #0]
 80023de:	000e      	movs	r6, r1
 80023e0:	6991      	ldr	r1, [r2, #24]
 80023e2:	2310      	movs	r3, #16
 80023e4:	000f      	movs	r7, r1
 80023e6:	0004      	movs	r4, r0
 80023e8:	401f      	ands	r7, r3
 80023ea:	2000      	movs	r0, #0
 80023ec:	4219      	tst	r1, r3
 80023ee:	d00d      	beq.n	800240c <I2C_IsErrorOccurred+0x34>
 80023f0:	0007      	movs	r7, r0
 80023f2:	61d3      	str	r3, [r2, #28]
 80023f4:	9001      	str	r0, [sp, #4]
 80023f6:	6823      	ldr	r3, [r4, #0]
 80023f8:	2120      	movs	r1, #32
 80023fa:	699a      	ldr	r2, [r3, #24]
 80023fc:	420a      	tst	r2, r1
 80023fe:	d15f      	bne.n	80024c0 <I2C_IsErrorOccurred+0xe8>
 8002400:	2f00      	cmp	r7, #0
 8002402:	d031      	beq.n	8002468 <I2C_IsErrorOccurred+0x90>
 8002404:	2704      	movs	r7, #4
 8002406:	2001      	movs	r0, #1
 8002408:	9b01      	ldr	r3, [sp, #4]
 800240a:	431f      	orrs	r7, r3
 800240c:	2280      	movs	r2, #128	@ 0x80
 800240e:	6825      	ldr	r5, [r4, #0]
 8002410:	0052      	lsls	r2, r2, #1
 8002412:	69ab      	ldr	r3, [r5, #24]
 8002414:	4213      	tst	r3, r2
 8002416:	d002      	beq.n	800241e <I2C_IsErrorOccurred+0x46>
 8002418:	2001      	movs	r0, #1
 800241a:	61ea      	str	r2, [r5, #28]
 800241c:	4307      	orrs	r7, r0
 800241e:	2280      	movs	r2, #128	@ 0x80
 8002420:	00d2      	lsls	r2, r2, #3
 8002422:	4213      	tst	r3, r2
 8002424:	d003      	beq.n	800242e <I2C_IsErrorOccurred+0x56>
 8002426:	2108      	movs	r1, #8
 8002428:	2001      	movs	r0, #1
 800242a:	430f      	orrs	r7, r1
 800242c:	61ea      	str	r2, [r5, #28]
 800242e:	2280      	movs	r2, #128	@ 0x80
 8002430:	0092      	lsls	r2, r2, #2
 8002432:	4213      	tst	r3, r2
 8002434:	d049      	beq.n	80024ca <I2C_IsErrorOccurred+0xf2>
 8002436:	2302      	movs	r3, #2
 8002438:	61ea      	str	r2, [r5, #28]
 800243a:	431f      	orrs	r7, r3
 800243c:	0020      	movs	r0, r4
 800243e:	f7ff ffa7 	bl	8002390 <I2C_Flush_TXDR>
 8002442:	686b      	ldr	r3, [r5, #4]
 8002444:	4a22      	ldr	r2, [pc, #136]	@ (80024d0 <I2C_IsErrorOccurred+0xf8>)
 8002446:	2001      	movs	r0, #1
 8002448:	4013      	ands	r3, r2
 800244a:	606b      	str	r3, [r5, #4]
 800244c:	6c63      	ldr	r3, [r4, #68]	@ 0x44
 800244e:	2220      	movs	r2, #32
 8002450:	433b      	orrs	r3, r7
 8002452:	6463      	str	r3, [r4, #68]	@ 0x44
 8002454:	0023      	movs	r3, r4
 8002456:	3341      	adds	r3, #65	@ 0x41
 8002458:	701a      	strb	r2, [r3, #0]
 800245a:	0022      	movs	r2, r4
 800245c:	2300      	movs	r3, #0
 800245e:	3242      	adds	r2, #66	@ 0x42
 8002460:	3440      	adds	r4, #64	@ 0x40
 8002462:	7013      	strb	r3, [r2, #0]
 8002464:	7023      	strb	r3, [r4, #0]
 8002466:	e032      	b.n	80024ce <I2C_IsErrorOccurred+0xf6>
 8002468:	1c72      	adds	r2, r6, #1
 800246a:	d0c5      	beq.n	80023f8 <I2C_IsErrorOccurred+0x20>
 800246c:	f7ff fe76 	bl	800215c <HAL_GetTick>
 8002470:	1b40      	subs	r0, r0, r5
 8002472:	42b0      	cmp	r0, r6
 8002474:	d801      	bhi.n	800247a <I2C_IsErrorOccurred+0xa2>
 8002476:	2e00      	cmp	r6, #0
 8002478:	d1bd      	bne.n	80023f6 <I2C_IsErrorOccurred+0x1e>
 800247a:	0022      	movs	r2, r4
 800247c:	6823      	ldr	r3, [r4, #0]
 800247e:	3242      	adds	r2, #66	@ 0x42
 8002480:	6858      	ldr	r0, [r3, #4]
 8002482:	7811      	ldrb	r1, [r2, #0]
 8002484:	699a      	ldr	r2, [r3, #24]
 8002486:	b2c9      	uxtb	r1, r1
 8002488:	0412      	lsls	r2, r2, #16
 800248a:	d50b      	bpl.n	80024a4 <I2C_IsErrorOccurred+0xcc>
 800248c:	2280      	movs	r2, #128	@ 0x80
 800248e:	01d2      	lsls	r2, r2, #7
 8002490:	4210      	tst	r0, r2
 8002492:	d107      	bne.n	80024a4 <I2C_IsErrorOccurred+0xcc>
 8002494:	2920      	cmp	r1, #32
 8002496:	d005      	beq.n	80024a4 <I2C_IsErrorOccurred+0xcc>
 8002498:	6859      	ldr	r1, [r3, #4]
 800249a:	430a      	orrs	r2, r1
 800249c:	605a      	str	r2, [r3, #4]
 800249e:	f7ff fe5d 	bl	800215c <HAL_GetTick>
 80024a2:	0005      	movs	r5, r0
 80024a4:	2220      	movs	r2, #32
 80024a6:	6823      	ldr	r3, [r4, #0]
 80024a8:	699b      	ldr	r3, [r3, #24]
 80024aa:	4213      	tst	r3, r2
 80024ac:	d1a3      	bne.n	80023f6 <I2C_IsErrorOccurred+0x1e>
 80024ae:	f7ff fe55 	bl	800215c <HAL_GetTick>
 80024b2:	1b40      	subs	r0, r0, r5
 80024b4:	2819      	cmp	r0, #25
 80024b6:	d9f5      	bls.n	80024a4 <I2C_IsErrorOccurred+0xcc>
 80024b8:	2320      	movs	r3, #32
 80024ba:	2701      	movs	r7, #1
 80024bc:	9301      	str	r3, [sp, #4]
 80024be:	e79a      	b.n	80023f6 <I2C_IsErrorOccurred+0x1e>
 80024c0:	2f00      	cmp	r7, #0
 80024c2:	d19f      	bne.n	8002404 <I2C_IsErrorOccurred+0x2c>
 80024c4:	2220      	movs	r2, #32
 80024c6:	61da      	str	r2, [r3, #28]
 80024c8:	e79c      	b.n	8002404 <I2C_IsErrorOccurred+0x2c>
 80024ca:	2800      	cmp	r0, #0
 80024cc:	d1b6      	bne.n	800243c <I2C_IsErrorOccurred+0x64>
 80024ce:	bdfe      	pop	{r1, r2, r3, r4, r5, r6, r7, pc}
 80024d0:	fe00e800 	.word	0xfe00e800

080024d4 <I2C_WaitOnTXISFlagUntilTimeout>:
 80024d4:	b5f8      	push	{r3, r4, r5, r6, r7, lr}
 80024d6:	0004      	movs	r4, r0
 80024d8:	000d      	movs	r5, r1
 80024da:	0016      	movs	r6, r2
 80024dc:	2702      	movs	r7, #2
 80024de:	6823      	ldr	r3, [r4, #0]
 80024e0:	699b      	ldr	r3, [r3, #24]
 80024e2:	423b      	tst	r3, r7
 80024e4:	d001      	beq.n	80024ea <I2C_WaitOnTXISFlagUntilTimeout+0x16>
 80024e6:	2000      	movs	r0, #0
 80024e8:	e021      	b.n	800252e <I2C_WaitOnTXISFlagUntilTimeout+0x5a>
 80024ea:	0032      	movs	r2, r6
 80024ec:	0029      	movs	r1, r5
 80024ee:	0020      	movs	r0, r4
 80024f0:	f7ff ff72 	bl	80023d8 <I2C_IsErrorOccurred>
 80024f4:	2800      	cmp	r0, #0
 80024f6:	d119      	bne.n	800252c <I2C_WaitOnTXISFlagUntilTimeout+0x58>
 80024f8:	1c6b      	adds	r3, r5, #1
 80024fa:	d0f0      	beq.n	80024de <I2C_WaitOnTXISFlagUntilTimeout+0xa>
 80024fc:	f7ff fe2e 	bl	800215c <HAL_GetTick>
 8002500:	1b80      	subs	r0, r0, r6
 8002502:	42a8      	cmp	r0, r5
 8002504:	d801      	bhi.n	800250a <I2C_WaitOnTXISFlagUntilTimeout+0x36>
 8002506:	2d00      	cmp	r5, #0
 8002508:	d1e9      	bne.n	80024de <I2C_WaitOnTXISFlagUntilTimeout+0xa>
 800250a:	6823      	ldr	r3, [r4, #0]
 800250c:	6999      	ldr	r1, [r3, #24]
 800250e:	2302      	movs	r3, #2
 8002510:	000a      	movs	r2, r1
 8002512:	401a      	ands	r2, r3
 8002514:	4219      	tst	r1, r3
 8002516:	d1e2      	bne.n	80024de <I2C_WaitOnTXISFlagUntilTimeout+0xa>
 8002518:	2120      	movs	r1, #32
 800251a:	6c63      	ldr	r3, [r4, #68]	@ 0x44
 800251c:	430b      	orrs	r3, r1
 800251e:	6463      	str	r3, [r4, #68]	@ 0x44
 8002520:	0023      	movs	r3, r4
 8002522:	3440      	adds	r4, #64	@ 0x40
 8002524:	3341      	adds	r3, #65	@ 0x41
 8002526:	7019      	strb	r1, [r3, #0]
 8002528:	705a      	strb	r2, [r3, #1]
 800252a:	7022      	strb	r2, [r4, #0]
 800252c:	2001      	movs	r0, #1
 800252e:	bdf8      	pop	{r3, r4, r5, r6, r7, pc}

08002530 <I2C_WaitOnFlagUntilTimeout>:
 8002530:	b5f8      	push	{r3, r4, r5, r6, r7, lr}
 8002532:	0004      	movs	r4, r0
 8002534:	000d      	movs	r5, r1
 8002536:	0017      	movs	r7, r2
 8002538:	001e      	movs	r6, r3
 800253a:	6823      	ldr	r3, [r4, #0]
 800253c:	699b      	ldr	r3, [r3, #24]
 800253e:	402b      	ands	r3, r5
 8002540:	1b5b      	subs	r3, r3, r5
 8002542:	425a      	negs	r2, r3
 8002544:	4153      	adcs	r3, r2
 8002546:	42bb      	cmp	r3, r7
 8002548:	d001      	beq.n	800254e <I2C_WaitOnFlagUntilTimeout+0x1e>
 800254a:	2000      	movs	r0, #0
 800254c:	e026      	b.n	800259c <I2C_WaitOnFlagUntilTimeout+0x6c>
 800254e:	0031      	movs	r1, r6
 8002550:	0020      	movs	r0, r4
 8002552:	9a06      	ldr	r2, [sp, #24]
 8002554:	f7ff ff40 	bl	80023d8 <I2C_IsErrorOccurred>
 8002558:	2800      	cmp	r0, #0
 800255a:	d11e      	bne.n	800259a <I2C_WaitOnFlagUntilTimeout+0x6a>
 800255c:	1c73      	adds	r3, r6, #1
 800255e:	d0ec      	beq.n	800253a <I2C_WaitOnFlagUntilTimeout+0xa>
 8002560:	f7ff fdfc 	bl	800215c <HAL_GetTick>
 8002564:	9b06      	ldr	r3, [sp, #24]
 8002566:	1ac0      	subs	r0, r0, r3
 8002568:	42b0      	cmp	r0, r6
 800256a:	d801      	bhi.n	8002570 <I2C_WaitOnFlagUntilTimeout+0x40>
 800256c:	2e00      	cmp	r6, #0
 800256e:	d1e4      	bne.n	800253a <I2C_WaitOnFlagUntilTimeout+0xa>
 8002570:	6823      	ldr	r3, [r4, #0]
 8002572:	699b      	ldr	r3, [r3, #24]
 8002574:	402b      	ands	r3, r5
 8002576:	1b5b      	subs	r3, r3, r5
 8002578:	425a      	negs	r2, r3
 800257a:	4153      	adcs	r3, r2
 800257c:	42bb      	cmp	r3, r7
 800257e:	d1dc      	bne.n	800253a <I2C_WaitOnFlagUntilTimeout+0xa>
 8002580:	2220      	movs	r2, #32
 8002582:	6c63      	ldr	r3, [r4, #68]	@ 0x44
 8002584:	4313      	orrs	r3, r2
 8002586:	6463      	str	r3, [r4, #68]	@ 0x44
 8002588:	0023      	movs	r3, r4
 800258a:	3341      	adds	r3, #65	@ 0x41
 800258c:	701a      	strb	r2, [r3, #0]
 800258e:	0022      	movs	r2, r4
 8002590:	2300      	movs	r3, #0
 8002592:	3242      	adds	r2, #66	@ 0x42
 8002594:	3440      	adds	r4, #64	@ 0x40
 8002596:	7013      	strb	r3, [r2, #0]
 8002598:	7023      	strb	r3, [r4, #0]
 800259a:	2001      	movs	r0, #1
 800259c:	bdf8      	pop	{r3, r4, r5, r6, r7, pc}

0800259e <I2C_WaitOnSTOPFlagUntilTimeout>:
 800259e:	b5f8      	push	{r3, r4, r5, r6, r7, lr}
 80025a0:	0004      	movs	r4, r0
 80025a2:	000e      	movs	r6, r1
 80025a4:	0017      	movs	r7, r2
 80025a6:	2520      	movs	r5, #32
 80025a8:	6823      	ldr	r3, [r4, #0]
 80025aa:	699b      	ldr	r3, [r3, #24]
 80025ac:	422b      	tst	r3, r5
 80025ae:	d001      	beq.n	80025b4 <I2C_WaitOnSTOPFlagUntilTimeout+0x16>
 80025b0:	2000      	movs	r0, #0
 80025b2:	e01d      	b.n	80025f0 <I2C_WaitOnSTOPFlagUntilTimeout+0x52>
 80025b4:	003a      	movs	r2, r7
 80025b6:	0031      	movs	r1, r6
 80025b8:	0020      	movs	r0, r4
 80025ba:	f7ff ff0d 	bl	80023d8 <I2C_IsErrorOccurred>
 80025be:	2800      	cmp	r0, #0
 80025c0:	d115      	bne.n	80025ee <I2C_WaitOnSTOPFlagUntilTimeout+0x50>
 80025c2:	f7ff fdcb 	bl	800215c <HAL_GetTick>
 80025c6:	1bc0      	subs	r0, r0, r7
 80025c8:	42b0      	cmp	r0, r6
 80025ca:	d801      	bhi.n	80025d0 <I2C_WaitOnSTOPFlagUntilTimeout+0x32>
 80025cc:	2e00      	cmp	r6, #0
 80025ce:	d1eb      	bne.n	80025a8 <I2C_WaitOnSTOPFlagUntilTimeout+0xa>
 80025d0:	6823      	ldr	r3, [r4, #0]
 80025d2:	699b      	ldr	r3, [r3, #24]
 80025d4:	001a      	movs	r2, r3
 80025d6:	402a      	ands	r2, r5
 80025d8:	422b      	tst	r3, r5
 80025da:	d1e5      	bne.n	80025a8 <I2C_WaitOnSTOPFlagUntilTimeout+0xa>
 80025dc:	6c63      	ldr	r3, [r4, #68]	@ 0x44
 80025de:	432b      	orrs	r3, r5
 80025e0:	6463      	str	r3, [r4, #68]	@ 0x44
 80025e2:	0023      	movs	r3, r4
 80025e4:	3440      	adds	r4, #64	@ 0x40
 80025e6:	3341      	adds	r3, #65	@ 0x41
 80025e8:	701d      	strb	r5, [r3, #0]
 80025ea:	705a      	strb	r2, [r3, #1]
 80025ec:	7022      	strb	r2, [r4, #0]
 80025ee:	2001      	movs	r0, #1
 80025f0:	bdf8      	pop	{r3, r4, r5, r6, r7, pc}
	...

080025f4 <I2C_WaitOnRXNEFlagUntilTimeout>:
 80025f4:	b5f7      	push	{r0, r1, r2, r4, r5, r6, r7, lr}
 80025f6:	0005      	movs	r5, r0
 80025f8:	2400      	movs	r4, #0
 80025fa:	2704      	movs	r7, #4
 80025fc:	2620      	movs	r6, #32
 80025fe:	9100      	str	r1, [sp, #0]
 8002600:	9201      	str	r2, [sp, #4]
 8002602:	682b      	ldr	r3, [r5, #0]
 8002604:	699b      	ldr	r3, [r3, #24]
 8002606:	423b      	tst	r3, r7
 8002608:	d101      	bne.n	800260e <I2C_WaitOnRXNEFlagUntilTimeout+0x1a>
 800260a:	2c00      	cmp	r4, #0
 800260c:	d001      	beq.n	8002612 <I2C_WaitOnRXNEFlagUntilTimeout+0x1e>
 800260e:	0020      	movs	r0, r4
 8002610:	bdfe      	pop	{r1, r2, r3, r4, r5, r6, r7, pc}
 8002612:	9a01      	ldr	r2, [sp, #4]
 8002614:	0028      	movs	r0, r5
 8002616:	9900      	ldr	r1, [sp, #0]
 8002618:	f7ff fede 	bl	80023d8 <I2C_IsErrorOccurred>
 800261c:	682b      	ldr	r3, [r5, #0]
 800261e:	0004      	movs	r4, r0
 8002620:	699a      	ldr	r2, [r3, #24]
 8002622:	4232      	tst	r2, r6
 8002624:	d10f      	bne.n	8002646 <I2C_WaitOnRXNEFlagUntilTimeout+0x52>
 8002626:	1e63      	subs	r3, r4, #1
 8002628:	419c      	sbcs	r4, r3
 800262a:	b2e4      	uxtb	r4, r4
 800262c:	f7ff fd96 	bl	800215c <HAL_GetTick>
 8002630:	9b01      	ldr	r3, [sp, #4]
 8002632:	1ac0      	subs	r0, r0, r3
 8002634:	9b00      	ldr	r3, [sp, #0]
 8002636:	4298      	cmp	r0, r3
 8002638:	d801      	bhi.n	800263e <I2C_WaitOnRXNEFlagUntilTimeout+0x4a>
 800263a:	2b00      	cmp	r3, #0
 800263c:	d1e1      	bne.n	8002602 <I2C_WaitOnRXNEFlagUntilTimeout+0xe>
 800263e:	2c00      	cmp	r4, #0
 8002640:	d019      	beq.n	8002676 <I2C_WaitOnRXNEFlagUntilTimeout+0x82>
 8002642:	2401      	movs	r4, #1
 8002644:	e7dd      	b.n	8002602 <I2C_WaitOnRXNEFlagUntilTimeout+0xe>
 8002646:	2800      	cmp	r0, #0
 8002648:	d111      	bne.n	800266e <I2C_WaitOnRXNEFlagUntilTimeout+0x7a>
 800264a:	699a      	ldr	r2, [r3, #24]
 800264c:	2210      	movs	r2, #16
 800264e:	6999      	ldr	r1, [r3, #24]
 8002650:	4211      	tst	r1, r2
 8002652:	d00e      	beq.n	8002672 <I2C_WaitOnRXNEFlagUntilTimeout+0x7e>
 8002654:	61da      	str	r2, [r3, #28]
 8002656:	646f      	str	r7, [r5, #68]	@ 0x44
 8002658:	61de      	str	r6, [r3, #28]
 800265a:	685a      	ldr	r2, [r3, #4]
 800265c:	490c      	ldr	r1, [pc, #48]	@ (8002690 <I2C_WaitOnRXNEFlagUntilTimeout+0x9c>)
 800265e:	400a      	ands	r2, r1
 8002660:	605a      	str	r2, [r3, #4]
 8002662:	002b      	movs	r3, r5
 8002664:	3341      	adds	r3, #65	@ 0x41
 8002666:	701e      	strb	r6, [r3, #0]
 8002668:	7058      	strb	r0, [r3, #1]
 800266a:	3b01      	subs	r3, #1
 800266c:	7018      	strb	r0, [r3, #0]
 800266e:	2401      	movs	r4, #1
 8002670:	e7dc      	b.n	800262c <I2C_WaitOnRXNEFlagUntilTimeout+0x38>
 8002672:	6468      	str	r0, [r5, #68]	@ 0x44
 8002674:	e7da      	b.n	800262c <I2C_WaitOnRXNEFlagUntilTimeout+0x38>
 8002676:	682b      	ldr	r3, [r5, #0]
 8002678:	699b      	ldr	r3, [r3, #24]
 800267a:	423b      	tst	r3, r7
 800267c:	d1c1      	bne.n	8002602 <I2C_WaitOnRXNEFlagUntilTimeout+0xe>
 800267e:	6c6b      	ldr	r3, [r5, #68]	@ 0x44
 8002680:	4333      	orrs	r3, r6
 8002682:	646b      	str	r3, [r5, #68]	@ 0x44
 8002684:	002b      	movs	r3, r5
 8002686:	3341      	adds	r3, #65	@ 0x41
 8002688:	701e      	strb	r6, [r3, #0]
 800268a:	3b01      	subs	r3, #1
 800268c:	701c      	strb	r4, [r3, #0]
 800268e:	e7d8      	b.n	8002642 <I2C_WaitOnRXNEFlagUntilTimeout+0x4e>
 8002690:	fe00e800 	.word	0xfe00e800

08002694 <HAL_I2C_Init>:
 8002694:	b570      	push	{r4, r5, r6, lr}
 8002696:	0004      	movs	r4, r0
 8002698:	2001      	movs	r0, #1
 800269a:	2c00      	cmp	r4, #0
 800269c:	d04e      	beq.n	800273c <HAL_I2C_Init+0xa8>
 800269e:	0025      	movs	r5, r4
 80026a0:	3541      	adds	r5, #65	@ 0x41
 80026a2:	782b      	ldrb	r3, [r5, #0]
 80026a4:	b2da      	uxtb	r2, r3
 80026a6:	2b00      	cmp	r3, #0
 80026a8:	d105      	bne.n	80026b6 <HAL_I2C_Init+0x22>
 80026aa:	0023      	movs	r3, r4
 80026ac:	3340      	adds	r3, #64	@ 0x40
 80026ae:	0020      	movs	r0, r4
 80026b0:	701a      	strb	r2, [r3, #0]
 80026b2:	f7ff fc5b 	bl	8001f6c <HAL_I2C_MspInit>
 80026b6:	2324      	movs	r3, #36	@ 0x24
 80026b8:	2101      	movs	r1, #1
 80026ba:	702b      	strb	r3, [r5, #0]
 80026bc:	6823      	ldr	r3, [r4, #0]
 80026be:	68e0      	ldr	r0, [r4, #12]
 80026c0:	681a      	ldr	r2, [r3, #0]
 80026c2:	68a6      	ldr	r6, [r4, #8]
 80026c4:	438a      	bics	r2, r1
 80026c6:	601a      	str	r2, [r3, #0]
 80026c8:	491d      	ldr	r1, [pc, #116]	@ (8002740 <HAL_I2C_Init+0xac>)
 80026ca:	6862      	ldr	r2, [r4, #4]
 80026cc:	400a      	ands	r2, r1
 80026ce:	611a      	str	r2, [r3, #16]
 80026d0:	689a      	ldr	r2, [r3, #8]
 80026d2:	491c      	ldr	r1, [pc, #112]	@ (8002744 <HAL_I2C_Init+0xb0>)
 80026d4:	400a      	ands	r2, r1
 80026d6:	609a      	str	r2, [r3, #8]
 80026d8:	2801      	cmp	r0, #1
 80026da:	d107      	bne.n	80026ec <HAL_I2C_Init+0x58>
 80026dc:	2280      	movs	r2, #128	@ 0x80
 80026de:	0212      	lsls	r2, r2, #8
 80026e0:	4332      	orrs	r2, r6
 80026e2:	609a      	str	r2, [r3, #8]
 80026e4:	685a      	ldr	r2, [r3, #4]
 80026e6:	4818      	ldr	r0, [pc, #96]	@ (8002748 <HAL_I2C_Init+0xb4>)
 80026e8:	4002      	ands	r2, r0
 80026ea:	e009      	b.n	8002700 <HAL_I2C_Init+0x6c>
 80026ec:	2284      	movs	r2, #132	@ 0x84
 80026ee:	0212      	lsls	r2, r2, #8
 80026f0:	4332      	orrs	r2, r6
 80026f2:	609a      	str	r2, [r3, #8]
 80026f4:	2802      	cmp	r0, #2
 80026f6:	d1f5      	bne.n	80026e4 <HAL_I2C_Init+0x50>
 80026f8:	2280      	movs	r2, #128	@ 0x80
 80026fa:	6858      	ldr	r0, [r3, #4]
 80026fc:	0112      	lsls	r2, r2, #4
 80026fe:	4302      	orrs	r2, r0
 8002700:	605a      	str	r2, [r3, #4]
 8002702:	6858      	ldr	r0, [r3, #4]
 8002704:	4a11      	ldr	r2, [pc, #68]	@ (800274c <HAL_I2C_Init+0xb8>)
 8002706:	4302      	orrs	r2, r0
 8002708:	605a      	str	r2, [r3, #4]
 800270a:	68da      	ldr	r2, [r3, #12]
 800270c:	2000      	movs	r0, #0
 800270e:	400a      	ands	r2, r1
 8002710:	60da      	str	r2, [r3, #12]
 8002712:	6961      	ldr	r1, [r4, #20]
 8002714:	6922      	ldr	r2, [r4, #16]
 8002716:	430a      	orrs	r2, r1
 8002718:	69a1      	ldr	r1, [r4, #24]
 800271a:	0209      	lsls	r1, r1, #8
 800271c:	430a      	orrs	r2, r1
 800271e:	60da      	str	r2, [r3, #12]
 8002720:	6a21      	ldr	r1, [r4, #32]
 8002722:	69e2      	ldr	r2, [r4, #28]
 8002724:	430a      	orrs	r2, r1
 8002726:	601a      	str	r2, [r3, #0]
 8002728:	2201      	movs	r2, #1
 800272a:	6819      	ldr	r1, [r3, #0]
 800272c:	430a      	orrs	r2, r1
 800272e:	601a      	str	r2, [r3, #0]
 8002730:	2320      	movs	r3, #32
 8002732:	6460      	str	r0, [r4, #68]	@ 0x44
 8002734:	702b      	strb	r3, [r5, #0]
 8002736:	6320      	str	r0, [r4, #48]	@ 0x30
 8002738:	3442      	adds	r4, #66	@ 0x42
 800273a:	7020      	strb	r0, [r4, #0]
 800273c:	bd70      	pop	{r4, r5, r6, pc}
 800273e:	46c0      	nop			@ (mov r8, r8)
 8002740:	f0ffffff 	.word	0xf0ffffff
 8002744:	ffff7fff 	.word	0xffff7fff
 8002748:	fffff7ff 	.word	0xfffff7ff
 800274c:	02008000 	.word	0x02008000

08002750 <HAL_I2C_Master_Transmit>:
 8002750:	b5f0      	push	{r4, r5, r6, r7, lr}
 8002752:	0006      	movs	r6, r0
 8002754:	b085      	sub	sp, #20
 8002756:	9202      	str	r2, [sp, #8]
 8002758:	9303      	str	r3, [sp, #12]
 800275a:	3641      	adds	r6, #65	@ 0x41
 800275c:	7833      	ldrb	r3, [r6, #0]
 800275e:	0004      	movs	r4, r0
 8002760:	000f      	movs	r7, r1
 8002762:	2002      	movs	r0, #2
 8002764:	2b20      	cmp	r3, #32
 8002766:	d114      	bne.n	8002792 <HAL_I2C_Master_Transmit+0x42>
 8002768:	0023      	movs	r3, r4
 800276a:	3340      	adds	r3, #64	@ 0x40
 800276c:	781a      	ldrb	r2, [r3, #0]
 800276e:	2a01      	cmp	r2, #1
 8002770:	d00f      	beq.n	8002792 <HAL_I2C_Master_Transmit+0x42>
 8002772:	2201      	movs	r2, #1
 8002774:	701a      	strb	r2, [r3, #0]
 8002776:	f7ff fcf1 	bl	800215c <HAL_GetTick>
 800277a:	2180      	movs	r1, #128	@ 0x80
 800277c:	0005      	movs	r5, r0
 800277e:	9000      	str	r0, [sp, #0]
 8002780:	2319      	movs	r3, #25
 8002782:	2201      	movs	r2, #1
 8002784:	0020      	movs	r0, r4
 8002786:	0209      	lsls	r1, r1, #8
 8002788:	f7ff fed2 	bl	8002530 <I2C_WaitOnFlagUntilTimeout>
 800278c:	2800      	cmp	r0, #0
 800278e:	d002      	beq.n	8002796 <HAL_I2C_Master_Transmit+0x46>
 8002790:	2001      	movs	r0, #1
 8002792:	b005      	add	sp, #20
 8002794:	bdf0      	pop	{r4, r5, r6, r7, pc}
 8002796:	2321      	movs	r3, #33	@ 0x21
 8002798:	7033      	strb	r3, [r6, #0]
 800279a:	0023      	movs	r3, r4
 800279c:	2210      	movs	r2, #16
 800279e:	3342      	adds	r3, #66	@ 0x42
 80027a0:	701a      	strb	r2, [r3, #0]
 80027a2:	9b02      	ldr	r3, [sp, #8]
 80027a4:	6460      	str	r0, [r4, #68]	@ 0x44
 80027a6:	6263      	str	r3, [r4, #36]	@ 0x24
 80027a8:	9b03      	ldr	r3, [sp, #12]
 80027aa:	4939      	ldr	r1, [pc, #228]	@ (8002890 <HAL_I2C_Master_Transmit+0x140>)
 80027ac:	8563      	strh	r3, [r4, #42]	@ 0x2a
 80027ae:	8d63      	ldrh	r3, [r4, #42]	@ 0x2a
 80027b0:	6360      	str	r0, [r4, #52]	@ 0x34
 80027b2:	2bff      	cmp	r3, #255	@ 0xff
 80027b4:	d930      	bls.n	8002818 <HAL_I2C_Master_Transmit+0xc8>
 80027b6:	2380      	movs	r3, #128	@ 0x80
 80027b8:	32ef      	adds	r2, #239	@ 0xef
 80027ba:	8522      	strh	r2, [r4, #40]	@ 0x28
 80027bc:	045b      	lsls	r3, r3, #17
 80027be:	9e02      	ldr	r6, [sp, #8]
 80027c0:	6820      	ldr	r0, [r4, #0]
 80027c2:	7836      	ldrb	r6, [r6, #0]
 80027c4:	3a01      	subs	r2, #1
 80027c6:	6286      	str	r6, [r0, #40]	@ 0x28
 80027c8:	9802      	ldr	r0, [sp, #8]
 80027ca:	b292      	uxth	r2, r2
 80027cc:	3001      	adds	r0, #1
 80027ce:	6260      	str	r0, [r4, #36]	@ 0x24
 80027d0:	8d60      	ldrh	r0, [r4, #42]	@ 0x2a
 80027d2:	8522      	strh	r2, [r4, #40]	@ 0x28
 80027d4:	3801      	subs	r0, #1
 80027d6:	b280      	uxth	r0, r0
 80027d8:	3201      	adds	r2, #1
 80027da:	8560      	strh	r0, [r4, #42]	@ 0x2a
 80027dc:	b2d2      	uxtb	r2, r2
 80027de:	9100      	str	r1, [sp, #0]
 80027e0:	0039      	movs	r1, r7
 80027e2:	0020      	movs	r0, r4
 80027e4:	f7ff fde2 	bl	80023ac <I2C_TransferConfig>
 80027e8:	8d63      	ldrh	r3, [r4, #42]	@ 0x2a
 80027ea:	002a      	movs	r2, r5
 80027ec:	0020      	movs	r0, r4
 80027ee:	990a      	ldr	r1, [sp, #40]	@ 0x28
 80027f0:	2b00      	cmp	r3, #0
 80027f2:	d11d      	bne.n	8002830 <HAL_I2C_Master_Transmit+0xe0>
 80027f4:	f7ff fed3 	bl	800259e <I2C_WaitOnSTOPFlagUntilTimeout>
 80027f8:	2800      	cmp	r0, #0
 80027fa:	d1c9      	bne.n	8002790 <HAL_I2C_Master_Transmit+0x40>
 80027fc:	2120      	movs	r1, #32
 80027fe:	6823      	ldr	r3, [r4, #0]
 8002800:	4d24      	ldr	r5, [pc, #144]	@ (8002894 <HAL_I2C_Master_Transmit+0x144>)
 8002802:	61d9      	str	r1, [r3, #28]
 8002804:	685a      	ldr	r2, [r3, #4]
 8002806:	402a      	ands	r2, r5
 8002808:	605a      	str	r2, [r3, #4]
 800280a:	0023      	movs	r3, r4
 800280c:	3440      	adds	r4, #64	@ 0x40
 800280e:	3341      	adds	r3, #65	@ 0x41
 8002810:	7019      	strb	r1, [r3, #0]
 8002812:	7058      	strb	r0, [r3, #1]
 8002814:	7020      	strb	r0, [r4, #0]
 8002816:	e7bc      	b.n	8002792 <HAL_I2C_Master_Transmit+0x42>
 8002818:	8d62      	ldrh	r2, [r4, #42]	@ 0x2a
 800281a:	b292      	uxth	r2, r2
 800281c:	8522      	strh	r2, [r4, #40]	@ 0x28
 800281e:	2a00      	cmp	r2, #0
 8002820:	d002      	beq.n	8002828 <HAL_I2C_Master_Transmit+0xd8>
 8002822:	2380      	movs	r3, #128	@ 0x80
 8002824:	049b      	lsls	r3, r3, #18
 8002826:	e7ca      	b.n	80027be <HAL_I2C_Master_Transmit+0x6e>
 8002828:	9100      	str	r1, [sp, #0]
 800282a:	2380      	movs	r3, #128	@ 0x80
 800282c:	049b      	lsls	r3, r3, #18
 800282e:	e7d7      	b.n	80027e0 <HAL_I2C_Master_Transmit+0x90>
 8002830:	f7ff fe50 	bl	80024d4 <I2C_WaitOnTXISFlagUntilTimeout>
 8002834:	2800      	cmp	r0, #0
 8002836:	d1ab      	bne.n	8002790 <HAL_I2C_Master_Transmit+0x40>
 8002838:	6a63      	ldr	r3, [r4, #36]	@ 0x24
 800283a:	6822      	ldr	r2, [r4, #0]
 800283c:	7819      	ldrb	r1, [r3, #0]
 800283e:	3301      	adds	r3, #1
 8002840:	6291      	str	r1, [r2, #40]	@ 0x28
 8002842:	6263      	str	r3, [r4, #36]	@ 0x24
 8002844:	8d63      	ldrh	r3, [r4, #42]	@ 0x2a
 8002846:	8d22      	ldrh	r2, [r4, #40]	@ 0x28
 8002848:	3b01      	subs	r3, #1
 800284a:	b29b      	uxth	r3, r3
 800284c:	8563      	strh	r3, [r4, #42]	@ 0x2a
 800284e:	3a01      	subs	r2, #1
 8002850:	8d63      	ldrh	r3, [r4, #42]	@ 0x2a
 8002852:	b292      	uxth	r2, r2
 8002854:	8522      	strh	r2, [r4, #40]	@ 0x28
 8002856:	2b00      	cmp	r3, #0
 8002858:	d0c6      	beq.n	80027e8 <HAL_I2C_Master_Transmit+0x98>
 800285a:	2a00      	cmp	r2, #0
 800285c:	d1c4      	bne.n	80027e8 <HAL_I2C_Master_Transmit+0x98>
 800285e:	2180      	movs	r1, #128	@ 0x80
 8002860:	0020      	movs	r0, r4
 8002862:	9b0a      	ldr	r3, [sp, #40]	@ 0x28
 8002864:	9500      	str	r5, [sp, #0]
 8002866:	f7ff fe63 	bl	8002530 <I2C_WaitOnFlagUntilTimeout>
 800286a:	2800      	cmp	r0, #0
 800286c:	d000      	beq.n	8002870 <HAL_I2C_Master_Transmit+0x120>
 800286e:	e78f      	b.n	8002790 <HAL_I2C_Master_Transmit+0x40>
 8002870:	8d63      	ldrh	r3, [r4, #42]	@ 0x2a
 8002872:	2bff      	cmp	r3, #255	@ 0xff
 8002874:	d905      	bls.n	8002882 <HAL_I2C_Master_Transmit+0x132>
 8002876:	22ff      	movs	r2, #255	@ 0xff
 8002878:	2380      	movs	r3, #128	@ 0x80
 800287a:	8522      	strh	r2, [r4, #40]	@ 0x28
 800287c:	045b      	lsls	r3, r3, #17
 800287e:	9000      	str	r0, [sp, #0]
 8002880:	e7ae      	b.n	80027e0 <HAL_I2C_Master_Transmit+0x90>
 8002882:	8d62      	ldrh	r2, [r4, #42]	@ 0x2a
 8002884:	b292      	uxth	r2, r2
 8002886:	8522      	strh	r2, [r4, #40]	@ 0x28
 8002888:	b2d2      	uxtb	r2, r2
 800288a:	9000      	str	r0, [sp, #0]
 800288c:	e7cd      	b.n	800282a <HAL_I2C_Master_Transmit+0xda>
 800288e:	46c0      	nop			@ (mov r8, r8)
 8002890:	80002000 	.word	0x80002000
 8002894:	fe00e800 	.word	0xfe00e800

08002898 <HAL_I2C_Master_Receive>:
 8002898:	b5f0      	push	{r4, r5, r6, r7, lr}
 800289a:	0006      	movs	r6, r0
 800289c:	b085      	sub	sp, #20
 800289e:	9202      	str	r2, [sp, #8]
 80028a0:	9303      	str	r3, [sp, #12]
 80028a2:	3641      	adds	r6, #65	@ 0x41
 80028a4:	7833      	ldrb	r3, [r6, #0]
 80028a6:	0004      	movs	r4, r0
 80028a8:	000f      	movs	r7, r1
 80028aa:	2002      	movs	r0, #2
 80028ac:	2b20      	cmp	r3, #32
 80028ae:	d114      	bne.n	80028da <HAL_I2C_Master_Receive+0x42>
 80028b0:	0023      	movs	r3, r4
 80028b2:	3340      	adds	r3, #64	@ 0x40
 80028b4:	781a      	ldrb	r2, [r3, #0]
 80028b6:	2a01      	cmp	r2, #1
 80028b8:	d00f      	beq.n	80028da <HAL_I2C_Master_Receive+0x42>
 80028ba:	2201      	movs	r2, #1
 80028bc:	701a      	strb	r2, [r3, #0]
 80028be:	f7ff fc4d 	bl	800215c <HAL_GetTick>
 80028c2:	2180      	movs	r1, #128	@ 0x80
 80028c4:	0005      	movs	r5, r0
 80028c6:	9000      	str	r0, [sp, #0]
 80028c8:	2319      	movs	r3, #25
 80028ca:	2201      	movs	r2, #1
 80028cc:	0020      	movs	r0, r4
 80028ce:	0209      	lsls	r1, r1, #8
 80028d0:	f7ff fe2e 	bl	8002530 <I2C_WaitOnFlagUntilTimeout>
 80028d4:	2800      	cmp	r0, #0
 80028d6:	d002      	beq.n	80028de <HAL_I2C_Master_Receive+0x46>
 80028d8:	2001      	movs	r0, #1
 80028da:	b005      	add	sp, #20
 80028dc:	bdf0      	pop	{r4, r5, r6, r7, pc}
 80028de:	2322      	movs	r3, #34	@ 0x22
 80028e0:	7033      	strb	r3, [r6, #0]
 80028e2:	0026      	movs	r6, r4
 80028e4:	3b12      	subs	r3, #18
 80028e6:	3642      	adds	r6, #66	@ 0x42
 80028e8:	7033      	strb	r3, [r6, #0]
 80028ea:	9b02      	ldr	r3, [sp, #8]
 80028ec:	6460      	str	r0, [r4, #68]	@ 0x44
 80028ee:	6263      	str	r3, [r4, #36]	@ 0x24
 80028f0:	9b03      	ldr	r3, [sp, #12]
 80028f2:	6360      	str	r0, [r4, #52]	@ 0x34
 80028f4:	8563      	strh	r3, [r4, #42]	@ 0x2a
 80028f6:	8d62      	ldrh	r2, [r4, #42]	@ 0x2a
 80028f8:	4b2c      	ldr	r3, [pc, #176]	@ (80029ac <HAL_I2C_Master_Receive+0x114>)
 80028fa:	2aff      	cmp	r2, #255	@ 0xff
 80028fc:	d920      	bls.n	8002940 <HAL_I2C_Master_Receive+0xa8>
 80028fe:	22ff      	movs	r2, #255	@ 0xff
 8002900:	8522      	strh	r2, [r4, #40]	@ 0x28
 8002902:	9300      	str	r3, [sp, #0]
 8002904:	2380      	movs	r3, #128	@ 0x80
 8002906:	045b      	lsls	r3, r3, #17
 8002908:	0039      	movs	r1, r7
 800290a:	0020      	movs	r0, r4
 800290c:	f7ff fd4e 	bl	80023ac <I2C_TransferConfig>
 8002910:	8d63      	ldrh	r3, [r4, #42]	@ 0x2a
 8002912:	002a      	movs	r2, r5
 8002914:	0020      	movs	r0, r4
 8002916:	990a      	ldr	r1, [sp, #40]	@ 0x28
 8002918:	2b00      	cmp	r3, #0
 800291a:	d119      	bne.n	8002950 <HAL_I2C_Master_Receive+0xb8>
 800291c:	f7ff fe3f 	bl	800259e <I2C_WaitOnSTOPFlagUntilTimeout>
 8002920:	2800      	cmp	r0, #0
 8002922:	d1d9      	bne.n	80028d8 <HAL_I2C_Master_Receive+0x40>
 8002924:	2120      	movs	r1, #32
 8002926:	6823      	ldr	r3, [r4, #0]
 8002928:	4d21      	ldr	r5, [pc, #132]	@ (80029b0 <HAL_I2C_Master_Receive+0x118>)
 800292a:	61d9      	str	r1, [r3, #28]
 800292c:	685a      	ldr	r2, [r3, #4]
 800292e:	402a      	ands	r2, r5
 8002930:	605a      	str	r2, [r3, #4]
 8002932:	0023      	movs	r3, r4
 8002934:	3440      	adds	r4, #64	@ 0x40
 8002936:	3341      	adds	r3, #65	@ 0x41
 8002938:	7019      	strb	r1, [r3, #0]
 800293a:	7030      	strb	r0, [r6, #0]
 800293c:	7020      	strb	r0, [r4, #0]
 800293e:	e7cc      	b.n	80028da <HAL_I2C_Master_Receive+0x42>
 8002940:	8d62      	ldrh	r2, [r4, #42]	@ 0x2a
 8002942:	b292      	uxth	r2, r2
 8002944:	8522      	strh	r2, [r4, #40]	@ 0x28
 8002946:	b2d2      	uxtb	r2, r2
 8002948:	9300      	str	r3, [sp, #0]
 800294a:	2380      	movs	r3, #128	@ 0x80
 800294c:	049b      	lsls	r3, r3, #18
 800294e:	e7db      	b.n	8002908 <HAL_I2C_Master_Receive+0x70>
 8002950:	f7ff fe50 	bl	80025f4 <I2C_WaitOnRXNEFlagUntilTimeout>
 8002954:	2800      	cmp	r0, #0
 8002956:	d1bf      	bne.n	80028d8 <HAL_I2C_Master_Receive+0x40>
 8002958:	6823      	ldr	r3, [r4, #0]
 800295a:	6a5a      	ldr	r2, [r3, #36]	@ 0x24
 800295c:	6a63      	ldr	r3, [r4, #36]	@ 0x24
 800295e:	701a      	strb	r2, [r3, #0]
 8002960:	6a63      	ldr	r3, [r4, #36]	@ 0x24
 8002962:	8d22      	ldrh	r2, [r4, #40]	@ 0x28
 8002964:	3301      	adds	r3, #1
 8002966:	6263      	str	r3, [r4, #36]	@ 0x24
 8002968:	8d63      	ldrh	r3, [r4, #42]	@ 0x2a
 800296a:	3a01      	subs	r2, #1
 800296c:	3b01      	subs	r3, #1
 800296e:	b29b      	uxth	r3, r3
 8002970:	8563      	strh	r3, [r4, #42]	@ 0x2a
 8002972:	8d63      	ldrh	r3, [r4, #42]	@ 0x2a
 8002974:	b292      	uxth	r2, r2
 8002976:	8522      	strh	r2, [r4, #40]	@ 0x28
 8002978:	2b00      	cmp	r3, #0
 800297a:	d0c9      	beq.n	8002910 <HAL_I2C_Master_Receive+0x78>
 800297c:	2a00      	cmp	r2, #0
 800297e:	d1c7      	bne.n	8002910 <HAL_I2C_Master_Receive+0x78>
 8002980:	2180      	movs	r1, #128	@ 0x80
 8002982:	0020      	movs	r0, r4
 8002984:	9b0a      	ldr	r3, [sp, #40]	@ 0x28
 8002986:	9500      	str	r5, [sp, #0]
 8002988:	f7ff fdd2 	bl	8002530 <I2C_WaitOnFlagUntilTimeout>
 800298c:	2800      	cmp	r0, #0
 800298e:	d1a3      	bne.n	80028d8 <HAL_I2C_Master_Receive+0x40>
 8002990:	8d63      	ldrh	r3, [r4, #42]	@ 0x2a
 8002992:	2bff      	cmp	r3, #255	@ 0xff
 8002994:	d903      	bls.n	800299e <HAL_I2C_Master_Receive+0x106>
 8002996:	22ff      	movs	r2, #255	@ 0xff
 8002998:	8522      	strh	r2, [r4, #40]	@ 0x28
 800299a:	9000      	str	r0, [sp, #0]
 800299c:	e7b2      	b.n	8002904 <HAL_I2C_Master_Receive+0x6c>
 800299e:	8d62      	ldrh	r2, [r4, #42]	@ 0x2a
 80029a0:	b292      	uxth	r2, r2
 80029a2:	8522      	strh	r2, [r4, #40]	@ 0x28
 80029a4:	b2d2      	uxtb	r2, r2
 80029a6:	9000      	str	r0, [sp, #0]
 80029a8:	e7cf      	b.n	800294a <HAL_I2C_Master_Receive+0xb2>
 80029aa:	46c0      	nop			@ (mov r8, r8)
 80029ac:	80002400 	.word	0x80002400
 80029b0:	fe00e800 	.word	0xfe00e800

080029b4 <HAL_I2CEx_ConfigAnalogFilter>:
 80029b4:	b5f0      	push	{r4, r5, r6, r7, lr}
 80029b6:	0004      	movs	r4, r0
 80029b8:	3441      	adds	r4, #65	@ 0x41
 80029ba:	7822      	ldrb	r2, [r4, #0]
 80029bc:	0003      	movs	r3, r0
 80029be:	000f      	movs	r7, r1
 80029c0:	2002      	movs	r0, #2
 80029c2:	b2d6      	uxtb	r6, r2
 80029c4:	2a20      	cmp	r2, #32
 80029c6:	d118      	bne.n	80029fa <HAL_I2CEx_ConfigAnalogFilter+0x46>
 80029c8:	001d      	movs	r5, r3
 80029ca:	3540      	adds	r5, #64	@ 0x40
 80029cc:	782a      	ldrb	r2, [r5, #0]
 80029ce:	2a01      	cmp	r2, #1
 80029d0:	d013      	beq.n	80029fa <HAL_I2CEx_ConfigAnalogFilter+0x46>
 80029d2:	2224      	movs	r2, #36	@ 0x24
 80029d4:	7022      	strb	r2, [r4, #0]
 80029d6:	681b      	ldr	r3, [r3, #0]
 80029d8:	3a23      	subs	r2, #35	@ 0x23
 80029da:	6819      	ldr	r1, [r3, #0]
 80029dc:	4807      	ldr	r0, [pc, #28]	@ (80029fc <HAL_I2CEx_ConfigAnalogFilter+0x48>)
 80029de:	4391      	bics	r1, r2
 80029e0:	6019      	str	r1, [r3, #0]
 80029e2:	6819      	ldr	r1, [r3, #0]
 80029e4:	4001      	ands	r1, r0
 80029e6:	2000      	movs	r0, #0
 80029e8:	6019      	str	r1, [r3, #0]
 80029ea:	6819      	ldr	r1, [r3, #0]
 80029ec:	4339      	orrs	r1, r7
 80029ee:	6019      	str	r1, [r3, #0]
 80029f0:	6819      	ldr	r1, [r3, #0]
 80029f2:	430a      	orrs	r2, r1
 80029f4:	601a      	str	r2, [r3, #0]
 80029f6:	7026      	strb	r6, [r4, #0]
 80029f8:	7028      	strb	r0, [r5, #0]
 80029fa:	bdf0      	pop	{r4, r5, r6, r7, pc}
 80029fc:	ffffefff 	.word	0xffffefff

08002a00 <HAL_I2CEx_ConfigDigitalFilter>:
 8002a00:	0002      	movs	r2, r0
 8002a02:	b5f0      	push	{r4, r5, r6, r7, lr}
 8002a04:	3241      	adds	r2, #65	@ 0x41
 8002a06:	7814      	ldrb	r4, [r2, #0]
 8002a08:	0003      	movs	r3, r0
 8002a0a:	b2e5      	uxtb	r5, r4
 8002a0c:	2002      	movs	r0, #2
 8002a0e:	2c20      	cmp	r4, #32
 8002a10:	d117      	bne.n	8002a42 <HAL_I2CEx_ConfigDigitalFilter+0x42>
 8002a12:	001c      	movs	r4, r3
 8002a14:	3440      	adds	r4, #64	@ 0x40
 8002a16:	7826      	ldrb	r6, [r4, #0]
 8002a18:	2e01      	cmp	r6, #1
 8002a1a:	d012      	beq.n	8002a42 <HAL_I2CEx_ConfigDigitalFilter+0x42>
 8002a1c:	3022      	adds	r0, #34	@ 0x22
 8002a1e:	7010      	strb	r0, [r2, #0]
 8002a20:	681b      	ldr	r3, [r3, #0]
 8002a22:	3823      	subs	r0, #35	@ 0x23
 8002a24:	681e      	ldr	r6, [r3, #0]
 8002a26:	4f07      	ldr	r7, [pc, #28]	@ (8002a44 <HAL_I2CEx_ConfigDigitalFilter+0x44>)
 8002a28:	4386      	bics	r6, r0
 8002a2a:	601e      	str	r6, [r3, #0]
 8002a2c:	681e      	ldr	r6, [r3, #0]
 8002a2e:	0209      	lsls	r1, r1, #8
 8002a30:	403e      	ands	r6, r7
 8002a32:	4331      	orrs	r1, r6
 8002a34:	6019      	str	r1, [r3, #0]
 8002a36:	6819      	ldr	r1, [r3, #0]
 8002a38:	4308      	orrs	r0, r1
 8002a3a:	6018      	str	r0, [r3, #0]
 8002a3c:	2000      	movs	r0, #0
 8002a3e:	7015      	strb	r5, [r2, #0]
 8002a40:	7020      	strb	r0, [r4, #0]
 8002a42:	bdf0      	pop	{r4, r5, r6, r7, pc}
 8002a44:	fffff0ff 	.word	0xfffff0ff

08002a48 <HAL_PWREx_ControlVoltageScaling>:
 8002a48:	b510      	push	{r4, lr}
 8002a4a:	4c11      	ldr	r4, [pc, #68]	@ (8002a90 <HAL_PWREx_ControlVoltageScaling+0x48>)
 8002a4c:	4911      	ldr	r1, [pc, #68]	@ (8002a94 <HAL_PWREx_ControlVoltageScaling+0x4c>)
 8002a4e:	6823      	ldr	r3, [r4, #0]
 8002a50:	0002      	movs	r2, r0
 8002a52:	400b      	ands	r3, r1
 8002a54:	4303      	orrs	r3, r0
 8002a56:	6023      	str	r3, [r4, #0]
 8002a58:	2380      	movs	r3, #128	@ 0x80
 8002a5a:	2000      	movs	r0, #0
 8002a5c:	009b      	lsls	r3, r3, #2
 8002a5e:	429a      	cmp	r2, r3
 8002a60:	d10e      	bne.n	8002a80 <HAL_PWREx_ControlVoltageScaling+0x38>
 8002a62:	4b0d      	ldr	r3, [pc, #52]	@ (8002a98 <HAL_PWREx_ControlVoltageScaling+0x50>)
 8002a64:	490d      	ldr	r1, [pc, #52]	@ (8002a9c <HAL_PWREx_ControlVoltageScaling+0x54>)
 8002a66:	6818      	ldr	r0, [r3, #0]
 8002a68:	2306      	movs	r3, #6
 8002a6a:	4358      	muls	r0, r3
 8002a6c:	f7fd fb52 	bl	8000114 <__udivsi3>
 8002a70:	2280      	movs	r2, #128	@ 0x80
 8002a72:	1c43      	adds	r3, r0, #1
 8002a74:	00d2      	lsls	r2, r2, #3
 8002a76:	6961      	ldr	r1, [r4, #20]
 8002a78:	0008      	movs	r0, r1
 8002a7a:	4010      	ands	r0, r2
 8002a7c:	4211      	tst	r1, r2
 8002a7e:	d100      	bne.n	8002a82 <HAL_PWREx_ControlVoltageScaling+0x3a>
 8002a80:	bd10      	pop	{r4, pc}
 8002a82:	2b00      	cmp	r3, #0
 8002a84:	d001      	beq.n	8002a8a <HAL_PWREx_ControlVoltageScaling+0x42>
 8002a86:	3b01      	subs	r3, #1
 8002a88:	e7f5      	b.n	8002a76 <HAL_PWREx_ControlVoltageScaling+0x2e>
 8002a8a:	2003      	movs	r0, #3
 8002a8c:	e7f8      	b.n	8002a80 <HAL_PWREx_ControlVoltageScaling+0x38>
 8002a8e:	46c0      	nop			@ (mov r8, r8)
 8002a90:	40007000 	.word	0x40007000
 8002a94:	fffff9ff 	.word	0xfffff9ff
 8002a98:	20000000 	.word	0x20000000
 8002a9c:	000f4240 	.word	0x000f4240

08002aa0 <HAL_RCC_OscConfig>:
 8002aa0:	b5f0      	push	{r4, r5, r6, r7, lr}
 8002aa2:	0004      	movs	r4, r0
 8002aa4:	b085      	sub	sp, #20
 8002aa6:	2800      	cmp	r0, #0
 8002aa8:	d102      	bne.n	8002ab0 <HAL_RCC_OscConfig+0x10>
 8002aaa:	2001      	movs	r0, #1
 8002aac:	b005      	add	sp, #20
 8002aae:	bdf0      	pop	{r4, r5, r6, r7, pc}
 8002ab0:	6803      	ldr	r3, [r0, #0]
 8002ab2:	07db      	lsls	r3, r3, #31
 8002ab4:	d410      	bmi.n	8002ad8 <HAL_RCC_OscConfig+0x38>
 8002ab6:	6823      	ldr	r3, [r4, #0]
 8002ab8:	079b      	lsls	r3, r3, #30
 8002aba:	d45c      	bmi.n	8002b76 <HAL_RCC_OscConfig+0xd6>
 8002abc:	6823      	ldr	r3, [r4, #0]
 8002abe:	071b      	lsls	r3, r3, #28
 8002ac0:	d500      	bpl.n	8002ac4 <HAL_RCC_OscConfig+0x24>
 8002ac2:	e0c1      	b.n	8002c48 <HAL_RCC_OscConfig+0x1a8>
 8002ac4:	6823      	ldr	r3, [r4, #0]
 8002ac6:	075b      	lsls	r3, r3, #29
 8002ac8:	d500      	bpl.n	8002acc <HAL_RCC_OscConfig+0x2c>
 8002aca:	e0f2      	b.n	8002cb2 <HAL_RCC_OscConfig+0x212>
 8002acc:	69e3      	ldr	r3, [r4, #28]
 8002ace:	2b00      	cmp	r3, #0
 8002ad0:	d000      	beq.n	8002ad4 <HAL_RCC_OscConfig+0x34>
 8002ad2:	e179      	b.n	8002dc8 <HAL_RCC_OscConfig+0x328>
 8002ad4:	2000      	movs	r0, #0
 8002ad6:	e7e9      	b.n	8002aac <HAL_RCC_OscConfig+0xc>
 8002ad8:	2238      	movs	r2, #56	@ 0x38
 8002ada:	4daf      	ldr	r5, [pc, #700]	@ (8002d98 <HAL_RCC_OscConfig+0x2f8>)
 8002adc:	68ab      	ldr	r3, [r5, #8]
 8002ade:	4013      	ands	r3, r2
 8002ae0:	68ea      	ldr	r2, [r5, #12]
 8002ae2:	2b10      	cmp	r3, #16
 8002ae4:	d109      	bne.n	8002afa <HAL_RCC_OscConfig+0x5a>
 8002ae6:	43d3      	mvns	r3, r2
 8002ae8:	079b      	lsls	r3, r3, #30
 8002aea:	d108      	bne.n	8002afe <HAL_RCC_OscConfig+0x5e>
 8002aec:	682b      	ldr	r3, [r5, #0]
 8002aee:	039b      	lsls	r3, r3, #14
 8002af0:	d5e1      	bpl.n	8002ab6 <HAL_RCC_OscConfig+0x16>
 8002af2:	6863      	ldr	r3, [r4, #4]
 8002af4:	2b00      	cmp	r3, #0
 8002af6:	d1de      	bne.n	8002ab6 <HAL_RCC_OscConfig+0x16>
 8002af8:	e7d7      	b.n	8002aaa <HAL_RCC_OscConfig+0xa>
 8002afa:	2b08      	cmp	r3, #8
 8002afc:	d0f6      	beq.n	8002aec <HAL_RCC_OscConfig+0x4c>
 8002afe:	2280      	movs	r2, #128	@ 0x80
 8002b00:	6863      	ldr	r3, [r4, #4]
 8002b02:	0252      	lsls	r2, r2, #9
 8002b04:	4293      	cmp	r3, r2
 8002b06:	d111      	bne.n	8002b2c <HAL_RCC_OscConfig+0x8c>
 8002b08:	682a      	ldr	r2, [r5, #0]
 8002b0a:	4313      	orrs	r3, r2
 8002b0c:	602b      	str	r3, [r5, #0]
 8002b0e:	f7ff fb25 	bl	800215c <HAL_GetTick>
 8002b12:	2780      	movs	r7, #128	@ 0x80
 8002b14:	0006      	movs	r6, r0
 8002b16:	02bf      	lsls	r7, r7, #10
 8002b18:	682b      	ldr	r3, [r5, #0]
 8002b1a:	423b      	tst	r3, r7
 8002b1c:	d1cb      	bne.n	8002ab6 <HAL_RCC_OscConfig+0x16>
 8002b1e:	f7ff fb1d 	bl	800215c <HAL_GetTick>
 8002b22:	1b80      	subs	r0, r0, r6
 8002b24:	2864      	cmp	r0, #100	@ 0x64
 8002b26:	d9f7      	bls.n	8002b18 <HAL_RCC_OscConfig+0x78>
 8002b28:	2003      	movs	r0, #3
 8002b2a:	e7bf      	b.n	8002aac <HAL_RCC_OscConfig+0xc>
 8002b2c:	21a0      	movs	r1, #160	@ 0xa0
 8002b2e:	02c9      	lsls	r1, r1, #11
 8002b30:	428b      	cmp	r3, r1
 8002b32:	d108      	bne.n	8002b46 <HAL_RCC_OscConfig+0xa6>
 8002b34:	2380      	movs	r3, #128	@ 0x80
 8002b36:	6829      	ldr	r1, [r5, #0]
 8002b38:	02db      	lsls	r3, r3, #11
 8002b3a:	430b      	orrs	r3, r1
 8002b3c:	602b      	str	r3, [r5, #0]
 8002b3e:	682b      	ldr	r3, [r5, #0]
 8002b40:	431a      	orrs	r2, r3
 8002b42:	602a      	str	r2, [r5, #0]
 8002b44:	e7e3      	b.n	8002b0e <HAL_RCC_OscConfig+0x6e>
 8002b46:	682a      	ldr	r2, [r5, #0]
 8002b48:	4994      	ldr	r1, [pc, #592]	@ (8002d9c <HAL_RCC_OscConfig+0x2fc>)
 8002b4a:	400a      	ands	r2, r1
 8002b4c:	602a      	str	r2, [r5, #0]
 8002b4e:	682a      	ldr	r2, [r5, #0]
 8002b50:	4993      	ldr	r1, [pc, #588]	@ (8002da0 <HAL_RCC_OscConfig+0x300>)
 8002b52:	400a      	ands	r2, r1
 8002b54:	602a      	str	r2, [r5, #0]
 8002b56:	2b00      	cmp	r3, #0
 8002b58:	d1d9      	bne.n	8002b0e <HAL_RCC_OscConfig+0x6e>
 8002b5a:	f7ff faff 	bl	800215c <HAL_GetTick>
 8002b5e:	2780      	movs	r7, #128	@ 0x80
 8002b60:	0006      	movs	r6, r0
 8002b62:	02bf      	lsls	r7, r7, #10
 8002b64:	682b      	ldr	r3, [r5, #0]
 8002b66:	423b      	tst	r3, r7
 8002b68:	d0a5      	beq.n	8002ab6 <HAL_RCC_OscConfig+0x16>
 8002b6a:	f7ff faf7 	bl	800215c <HAL_GetTick>
 8002b6e:	1b80      	subs	r0, r0, r6
 8002b70:	2864      	cmp	r0, #100	@ 0x64
 8002b72:	d9f7      	bls.n	8002b64 <HAL_RCC_OscConfig+0xc4>
 8002b74:	e7d8      	b.n	8002b28 <HAL_RCC_OscConfig+0x88>
 8002b76:	2238      	movs	r2, #56	@ 0x38
 8002b78:	4d87      	ldr	r5, [pc, #540]	@ (8002d98 <HAL_RCC_OscConfig+0x2f8>)
 8002b7a:	68ab      	ldr	r3, [r5, #8]
 8002b7c:	4013      	ands	r3, r2
 8002b7e:	68ea      	ldr	r2, [r5, #12]
 8002b80:	2b10      	cmp	r3, #16
 8002b82:	d128      	bne.n	8002bd6 <HAL_RCC_OscConfig+0x136>
 8002b84:	2103      	movs	r1, #3
 8002b86:	400a      	ands	r2, r1
 8002b88:	2a02      	cmp	r2, #2
 8002b8a:	d126      	bne.n	8002bda <HAL_RCC_OscConfig+0x13a>
 8002b8c:	682a      	ldr	r2, [r5, #0]
 8002b8e:	0552      	lsls	r2, r2, #21
 8002b90:	d503      	bpl.n	8002b9a <HAL_RCC_OscConfig+0xfa>
 8002b92:	68e2      	ldr	r2, [r4, #12]
 8002b94:	2a00      	cmp	r2, #0
 8002b96:	d100      	bne.n	8002b9a <HAL_RCC_OscConfig+0xfa>
 8002b98:	e787      	b.n	8002aaa <HAL_RCC_OscConfig+0xa>
 8002b9a:	6869      	ldr	r1, [r5, #4]
 8002b9c:	6962      	ldr	r2, [r4, #20]
 8002b9e:	4881      	ldr	r0, [pc, #516]	@ (8002da4 <HAL_RCC_OscConfig+0x304>)
 8002ba0:	0212      	lsls	r2, r2, #8
 8002ba2:	4001      	ands	r1, r0
 8002ba4:	430a      	orrs	r2, r1
 8002ba6:	606a      	str	r2, [r5, #4]
 8002ba8:	2b00      	cmp	r3, #0
 8002baa:	d10c      	bne.n	8002bc6 <HAL_RCC_OscConfig+0x126>
 8002bac:	682b      	ldr	r3, [r5, #0]
 8002bae:	4a7e      	ldr	r2, [pc, #504]	@ (8002da8 <HAL_RCC_OscConfig+0x308>)
 8002bb0:	497e      	ldr	r1, [pc, #504]	@ (8002dac <HAL_RCC_OscConfig+0x30c>)
 8002bb2:	4013      	ands	r3, r2
 8002bb4:	6922      	ldr	r2, [r4, #16]
 8002bb6:	4313      	orrs	r3, r2
 8002bb8:	602b      	str	r3, [r5, #0]
 8002bba:	682b      	ldr	r3, [r5, #0]
 8002bbc:	4a7c      	ldr	r2, [pc, #496]	@ (8002db0 <HAL_RCC_OscConfig+0x310>)
 8002bbe:	049b      	lsls	r3, r3, #18
 8002bc0:	0f5b      	lsrs	r3, r3, #29
 8002bc2:	40da      	lsrs	r2, r3
 8002bc4:	600a      	str	r2, [r1, #0]
 8002bc6:	4b7b      	ldr	r3, [pc, #492]	@ (8002db4 <HAL_RCC_OscConfig+0x314>)
 8002bc8:	6818      	ldr	r0, [r3, #0]
 8002bca:	f7ff fa7f 	bl	80020cc <HAL_InitTick>
 8002bce:	2800      	cmp	r0, #0
 8002bd0:	d100      	bne.n	8002bd4 <HAL_RCC_OscConfig+0x134>
 8002bd2:	e773      	b.n	8002abc <HAL_RCC_OscConfig+0x1c>
 8002bd4:	e769      	b.n	8002aaa <HAL_RCC_OscConfig+0xa>
 8002bd6:	2b00      	cmp	r3, #0
 8002bd8:	d0d8      	beq.n	8002b8c <HAL_RCC_OscConfig+0xec>
 8002bda:	68e3      	ldr	r3, [r4, #12]
 8002bdc:	2b00      	cmp	r3, #0
 8002bde:	d020      	beq.n	8002c22 <HAL_RCC_OscConfig+0x182>
 8002be0:	682b      	ldr	r3, [r5, #0]
 8002be2:	4a71      	ldr	r2, [pc, #452]	@ (8002da8 <HAL_RCC_OscConfig+0x308>)
 8002be4:	2780      	movs	r7, #128	@ 0x80
 8002be6:	4013      	ands	r3, r2
 8002be8:	6922      	ldr	r2, [r4, #16]
 8002bea:	00ff      	lsls	r7, r7, #3
 8002bec:	4313      	orrs	r3, r2
 8002bee:	602b      	str	r3, [r5, #0]
 8002bf0:	2380      	movs	r3, #128	@ 0x80
 8002bf2:	682a      	ldr	r2, [r5, #0]
 8002bf4:	005b      	lsls	r3, r3, #1
 8002bf6:	4313      	orrs	r3, r2
 8002bf8:	602b      	str	r3, [r5, #0]
 8002bfa:	f7ff faaf 	bl	800215c <HAL_GetTick>
 8002bfe:	0006      	movs	r6, r0
 8002c00:	682b      	ldr	r3, [r5, #0]
 8002c02:	423b      	tst	r3, r7
 8002c04:	d007      	beq.n	8002c16 <HAL_RCC_OscConfig+0x176>
 8002c06:	686a      	ldr	r2, [r5, #4]
 8002c08:	6963      	ldr	r3, [r4, #20]
 8002c0a:	4966      	ldr	r1, [pc, #408]	@ (8002da4 <HAL_RCC_OscConfig+0x304>)
 8002c0c:	021b      	lsls	r3, r3, #8
 8002c0e:	400a      	ands	r2, r1
 8002c10:	4313      	orrs	r3, r2
 8002c12:	606b      	str	r3, [r5, #4]
 8002c14:	e752      	b.n	8002abc <HAL_RCC_OscConfig+0x1c>
 8002c16:	f7ff faa1 	bl	800215c <HAL_GetTick>
 8002c1a:	1b80      	subs	r0, r0, r6
 8002c1c:	2802      	cmp	r0, #2
 8002c1e:	d9ef      	bls.n	8002c00 <HAL_RCC_OscConfig+0x160>
 8002c20:	e782      	b.n	8002b28 <HAL_RCC_OscConfig+0x88>
 8002c22:	682b      	ldr	r3, [r5, #0]
 8002c24:	4a64      	ldr	r2, [pc, #400]	@ (8002db8 <HAL_RCC_OscConfig+0x318>)
 8002c26:	2780      	movs	r7, #128	@ 0x80
 8002c28:	4013      	ands	r3, r2
 8002c2a:	602b      	str	r3, [r5, #0]
 8002c2c:	f7ff fa96 	bl	800215c <HAL_GetTick>
 8002c30:	0006      	movs	r6, r0
 8002c32:	00ff      	lsls	r7, r7, #3
 8002c34:	682b      	ldr	r3, [r5, #0]
 8002c36:	423b      	tst	r3, r7
 8002c38:	d100      	bne.n	8002c3c <HAL_RCC_OscConfig+0x19c>
 8002c3a:	e73f      	b.n	8002abc <HAL_RCC_OscConfig+0x1c>
 8002c3c:	f7ff fa8e 	bl	800215c <HAL_GetTick>
 8002c40:	1b80      	subs	r0, r0, r6
 8002c42:	2802      	cmp	r0, #2
 8002c44:	d9f6      	bls.n	8002c34 <HAL_RCC_OscConfig+0x194>
 8002c46:	e76f      	b.n	8002b28 <HAL_RCC_OscConfig+0x88>
 8002c48:	2238      	movs	r2, #56	@ 0x38
 8002c4a:	4d53      	ldr	r5, [pc, #332]	@ (8002d98 <HAL_RCC_OscConfig+0x2f8>)
 8002c4c:	68ab      	ldr	r3, [r5, #8]
 8002c4e:	4013      	ands	r3, r2
 8002c50:	2b18      	cmp	r3, #24
 8002c52:	d108      	bne.n	8002c66 <HAL_RCC_OscConfig+0x1c6>
 8002c54:	6e2b      	ldr	r3, [r5, #96]	@ 0x60
 8002c56:	079b      	lsls	r3, r3, #30
 8002c58:	d400      	bmi.n	8002c5c <HAL_RCC_OscConfig+0x1bc>
 8002c5a:	e733      	b.n	8002ac4 <HAL_RCC_OscConfig+0x24>
 8002c5c:	69a3      	ldr	r3, [r4, #24]
 8002c5e:	2b00      	cmp	r3, #0
 8002c60:	d000      	beq.n	8002c64 <HAL_RCC_OscConfig+0x1c4>
 8002c62:	e72f      	b.n	8002ac4 <HAL_RCC_OscConfig+0x24>
 8002c64:	e721      	b.n	8002aaa <HAL_RCC_OscConfig+0xa>
 8002c66:	69a2      	ldr	r2, [r4, #24]
 8002c68:	2301      	movs	r3, #1
 8002c6a:	2a00      	cmp	r2, #0
 8002c6c:	d010      	beq.n	8002c90 <HAL_RCC_OscConfig+0x1f0>
 8002c6e:	6e2a      	ldr	r2, [r5, #96]	@ 0x60
 8002c70:	2702      	movs	r7, #2
 8002c72:	4313      	orrs	r3, r2
 8002c74:	662b      	str	r3, [r5, #96]	@ 0x60
 8002c76:	f7ff fa71 	bl	800215c <HAL_GetTick>
 8002c7a:	0006      	movs	r6, r0
 8002c7c:	6e2b      	ldr	r3, [r5, #96]	@ 0x60
 8002c7e:	423b      	tst	r3, r7
 8002c80:	d000      	beq.n	8002c84 <HAL_RCC_OscConfig+0x1e4>
 8002c82:	e71f      	b.n	8002ac4 <HAL_RCC_OscConfig+0x24>
 8002c84:	f7ff fa6a 	bl	800215c <HAL_GetTick>
 8002c88:	1b80      	subs	r0, r0, r6
 8002c8a:	2802      	cmp	r0, #2
 8002c8c:	d9f6      	bls.n	8002c7c <HAL_RCC_OscConfig+0x1dc>
 8002c8e:	e74b      	b.n	8002b28 <HAL_RCC_OscConfig+0x88>
 8002c90:	6e2a      	ldr	r2, [r5, #96]	@ 0x60
 8002c92:	2702      	movs	r7, #2
 8002c94:	439a      	bics	r2, r3
 8002c96:	662a      	str	r2, [r5, #96]	@ 0x60
 8002c98:	f7ff fa60 	bl	800215c <HAL_GetTick>
 8002c9c:	0006      	movs	r6, r0
 8002c9e:	6e2b      	ldr	r3, [r5, #96]	@ 0x60
 8002ca0:	423b      	tst	r3, r7
 8002ca2:	d100      	bne.n	8002ca6 <HAL_RCC_OscConfig+0x206>
 8002ca4:	e70e      	b.n	8002ac4 <HAL_RCC_OscConfig+0x24>
 8002ca6:	f7ff fa59 	bl	800215c <HAL_GetTick>
 8002caa:	1b80      	subs	r0, r0, r6
 8002cac:	2802      	cmp	r0, #2
 8002cae:	d9f6      	bls.n	8002c9e <HAL_RCC_OscConfig+0x1fe>
 8002cb0:	e73a      	b.n	8002b28 <HAL_RCC_OscConfig+0x88>
 8002cb2:	2238      	movs	r2, #56	@ 0x38
 8002cb4:	4d38      	ldr	r5, [pc, #224]	@ (8002d98 <HAL_RCC_OscConfig+0x2f8>)
 8002cb6:	68ab      	ldr	r3, [r5, #8]
 8002cb8:	4013      	ands	r3, r2
 8002cba:	2b20      	cmp	r3, #32
 8002cbc:	d108      	bne.n	8002cd0 <HAL_RCC_OscConfig+0x230>
 8002cbe:	6deb      	ldr	r3, [r5, #92]	@ 0x5c
 8002cc0:	079b      	lsls	r3, r3, #30
 8002cc2:	d400      	bmi.n	8002cc6 <HAL_RCC_OscConfig+0x226>
 8002cc4:	e702      	b.n	8002acc <HAL_RCC_OscConfig+0x2c>
 8002cc6:	68a3      	ldr	r3, [r4, #8]
 8002cc8:	2b00      	cmp	r3, #0
 8002cca:	d000      	beq.n	8002cce <HAL_RCC_OscConfig+0x22e>
 8002ccc:	e6fe      	b.n	8002acc <HAL_RCC_OscConfig+0x2c>
 8002cce:	e6ec      	b.n	8002aaa <HAL_RCC_OscConfig+0xa>
 8002cd0:	2280      	movs	r2, #128	@ 0x80
 8002cd2:	2100      	movs	r1, #0
 8002cd4:	6beb      	ldr	r3, [r5, #60]	@ 0x3c
 8002cd6:	0552      	lsls	r2, r2, #21
 8002cd8:	9100      	str	r1, [sp, #0]
 8002cda:	4213      	tst	r3, r2
 8002cdc:	d108      	bne.n	8002cf0 <HAL_RCC_OscConfig+0x250>
 8002cde:	6beb      	ldr	r3, [r5, #60]	@ 0x3c
 8002ce0:	4313      	orrs	r3, r2
 8002ce2:	63eb      	str	r3, [r5, #60]	@ 0x3c
 8002ce4:	6beb      	ldr	r3, [r5, #60]	@ 0x3c
 8002ce6:	4013      	ands	r3, r2
 8002ce8:	9303      	str	r3, [sp, #12]
 8002cea:	9b03      	ldr	r3, [sp, #12]
 8002cec:	2301      	movs	r3, #1
 8002cee:	9300      	str	r3, [sp, #0]
 8002cf0:	2780      	movs	r7, #128	@ 0x80
 8002cf2:	4e32      	ldr	r6, [pc, #200]	@ (8002dbc <HAL_RCC_OscConfig+0x31c>)
 8002cf4:	007f      	lsls	r7, r7, #1
 8002cf6:	6833      	ldr	r3, [r6, #0]
 8002cf8:	423b      	tst	r3, r7
 8002cfa:	d015      	beq.n	8002d28 <HAL_RCC_OscConfig+0x288>
 8002cfc:	68a3      	ldr	r3, [r4, #8]
 8002cfe:	2b01      	cmp	r3, #1
 8002d00:	d122      	bne.n	8002d48 <HAL_RCC_OscConfig+0x2a8>
 8002d02:	6dea      	ldr	r2, [r5, #92]	@ 0x5c
 8002d04:	4313      	orrs	r3, r2
 8002d06:	65eb      	str	r3, [r5, #92]	@ 0x5c
 8002d08:	f7ff fa28 	bl	800215c <HAL_GetTick>
 8002d0c:	2702      	movs	r7, #2
 8002d0e:	0006      	movs	r6, r0
 8002d10:	6deb      	ldr	r3, [r5, #92]	@ 0x5c
 8002d12:	423b      	tst	r3, r7
 8002d14:	d038      	beq.n	8002d88 <HAL_RCC_OscConfig+0x2e8>
 8002d16:	9b00      	ldr	r3, [sp, #0]
 8002d18:	2b01      	cmp	r3, #1
 8002d1a:	d000      	beq.n	8002d1e <HAL_RCC_OscConfig+0x27e>
 8002d1c:	e6d6      	b.n	8002acc <HAL_RCC_OscConfig+0x2c>
 8002d1e:	6beb      	ldr	r3, [r5, #60]	@ 0x3c
 8002d20:	4a27      	ldr	r2, [pc, #156]	@ (8002dc0 <HAL_RCC_OscConfig+0x320>)
 8002d22:	4013      	ands	r3, r2
 8002d24:	63eb      	str	r3, [r5, #60]	@ 0x3c
 8002d26:	e6d1      	b.n	8002acc <HAL_RCC_OscConfig+0x2c>
 8002d28:	6833      	ldr	r3, [r6, #0]
 8002d2a:	433b      	orrs	r3, r7
 8002d2c:	6033      	str	r3, [r6, #0]
 8002d2e:	f7ff fa15 	bl	800215c <HAL_GetTick>
 8002d32:	9001      	str	r0, [sp, #4]
 8002d34:	6833      	ldr	r3, [r6, #0]
 8002d36:	423b      	tst	r3, r7
 8002d38:	d1e0      	bne.n	8002cfc <HAL_RCC_OscConfig+0x25c>
 8002d3a:	f7ff fa0f 	bl	800215c <HAL_GetTick>
 8002d3e:	9b01      	ldr	r3, [sp, #4]
 8002d40:	1ac0      	subs	r0, r0, r3
 8002d42:	2802      	cmp	r0, #2
 8002d44:	d9f6      	bls.n	8002d34 <HAL_RCC_OscConfig+0x294>
 8002d46:	e6ef      	b.n	8002b28 <HAL_RCC_OscConfig+0x88>
 8002d48:	6dea      	ldr	r2, [r5, #92]	@ 0x5c
 8002d4a:	2b05      	cmp	r3, #5
 8002d4c:	d105      	bne.n	8002d5a <HAL_RCC_OscConfig+0x2ba>
 8002d4e:	3b01      	subs	r3, #1
 8002d50:	4313      	orrs	r3, r2
 8002d52:	65eb      	str	r3, [r5, #92]	@ 0x5c
 8002d54:	6dea      	ldr	r2, [r5, #92]	@ 0x5c
 8002d56:	2301      	movs	r3, #1
 8002d58:	e7d4      	b.n	8002d04 <HAL_RCC_OscConfig+0x264>
 8002d5a:	2101      	movs	r1, #1
 8002d5c:	438a      	bics	r2, r1
 8002d5e:	65ea      	str	r2, [r5, #92]	@ 0x5c
 8002d60:	6dea      	ldr	r2, [r5, #92]	@ 0x5c
 8002d62:	3103      	adds	r1, #3
 8002d64:	438a      	bics	r2, r1
 8002d66:	65ea      	str	r2, [r5, #92]	@ 0x5c
 8002d68:	2b00      	cmp	r3, #0
 8002d6a:	d1cd      	bne.n	8002d08 <HAL_RCC_OscConfig+0x268>
 8002d6c:	f7ff f9f6 	bl	800215c <HAL_GetTick>
 8002d70:	2702      	movs	r7, #2
 8002d72:	0006      	movs	r6, r0
 8002d74:	6deb      	ldr	r3, [r5, #92]	@ 0x5c
 8002d76:	423b      	tst	r3, r7
 8002d78:	d0cd      	beq.n	8002d16 <HAL_RCC_OscConfig+0x276>
 8002d7a:	f7ff f9ef 	bl	800215c <HAL_GetTick>
 8002d7e:	4b11      	ldr	r3, [pc, #68]	@ (8002dc4 <HAL_RCC_OscConfig+0x324>)
 8002d80:	1b80      	subs	r0, r0, r6
 8002d82:	4298      	cmp	r0, r3
 8002d84:	d9f6      	bls.n	8002d74 <HAL_RCC_OscConfig+0x2d4>
 8002d86:	e6cf      	b.n	8002b28 <HAL_RCC_OscConfig+0x88>
 8002d88:	f7ff f9e8 	bl	800215c <HAL_GetTick>
 8002d8c:	4b0d      	ldr	r3, [pc, #52]	@ (8002dc4 <HAL_RCC_OscConfig+0x324>)
 8002d8e:	1b80      	subs	r0, r0, r6
 8002d90:	4298      	cmp	r0, r3
 8002d92:	d9bd      	bls.n	8002d10 <HAL_RCC_OscConfig+0x270>
 8002d94:	e6c8      	b.n	8002b28 <HAL_RCC_OscConfig+0x88>
 8002d96:	46c0      	nop			@ (mov r8, r8)
 8002d98:	40021000 	.word	0x40021000
 8002d9c:	fffeffff 	.word	0xfffeffff
 8002da0:	fffbffff 	.word	0xfffbffff
 8002da4:	ffff80ff 	.word	0xffff80ff
 8002da8:	ffffc7ff 	.word	0xffffc7ff
 8002dac:	20000000 	.word	0x20000000
 8002db0:	00f42400 	.word	0x00f42400
 8002db4:	20000008 	.word	0x20000008
 8002db8:	fffffeff 	.word	0xfffffeff
 8002dbc:	40007000 	.word	0x40007000
 8002dc0:	efffffff 	.word	0xefffffff
 8002dc4:	00001388 	.word	0x00001388
 8002dc8:	2138      	movs	r1, #56	@ 0x38
 8002dca:	4d3f      	ldr	r5, [pc, #252]	@ (8002ec8 <HAL_RCC_OscConfig+0x428>)
 8002dcc:	68aa      	ldr	r2, [r5, #8]
 8002dce:	400a      	ands	r2, r1
 8002dd0:	2a10      	cmp	r2, #16
 8002dd2:	d051      	beq.n	8002e78 <HAL_RCC_OscConfig+0x3d8>
 8002dd4:	4a3d      	ldr	r2, [pc, #244]	@ (8002ecc <HAL_RCC_OscConfig+0x42c>)
 8002dd6:	2b02      	cmp	r3, #2
 8002dd8:	d138      	bne.n	8002e4c <HAL_RCC_OscConfig+0x3ac>
 8002dda:	682b      	ldr	r3, [r5, #0]
 8002ddc:	2780      	movs	r7, #128	@ 0x80
 8002dde:	4013      	ands	r3, r2
 8002de0:	602b      	str	r3, [r5, #0]
 8002de2:	f7ff f9bb 	bl	800215c <HAL_GetTick>
 8002de6:	0006      	movs	r6, r0
 8002de8:	04bf      	lsls	r7, r7, #18
 8002dea:	682b      	ldr	r3, [r5, #0]
 8002dec:	423b      	tst	r3, r7
 8002dee:	d127      	bne.n	8002e40 <HAL_RCC_OscConfig+0x3a0>
 8002df0:	6a61      	ldr	r1, [r4, #36]	@ 0x24
 8002df2:	6a23      	ldr	r3, [r4, #32]
 8002df4:	68ea      	ldr	r2, [r5, #12]
 8002df6:	430b      	orrs	r3, r1
 8002df8:	4935      	ldr	r1, [pc, #212]	@ (8002ed0 <HAL_RCC_OscConfig+0x430>)
 8002dfa:	2680      	movs	r6, #128	@ 0x80
 8002dfc:	400a      	ands	r2, r1
 8002dfe:	4313      	orrs	r3, r2
 8002e00:	6ae2      	ldr	r2, [r4, #44]	@ 0x2c
 8002e02:	04b6      	lsls	r6, r6, #18
 8002e04:	4313      	orrs	r3, r2
 8002e06:	6b22      	ldr	r2, [r4, #48]	@ 0x30
 8002e08:	4313      	orrs	r3, r2
 8002e0a:	6aa2      	ldr	r2, [r4, #40]	@ 0x28
 8002e0c:	0212      	lsls	r2, r2, #8
 8002e0e:	4313      	orrs	r3, r2
 8002e10:	60eb      	str	r3, [r5, #12]
 8002e12:	2380      	movs	r3, #128	@ 0x80
 8002e14:	682a      	ldr	r2, [r5, #0]
 8002e16:	045b      	lsls	r3, r3, #17
 8002e18:	4313      	orrs	r3, r2
 8002e1a:	602b      	str	r3, [r5, #0]
 8002e1c:	2380      	movs	r3, #128	@ 0x80
 8002e1e:	68ea      	ldr	r2, [r5, #12]
 8002e20:	055b      	lsls	r3, r3, #21
 8002e22:	4313      	orrs	r3, r2
 8002e24:	60eb      	str	r3, [r5, #12]
 8002e26:	f7ff f999 	bl	800215c <HAL_GetTick>
 8002e2a:	0004      	movs	r4, r0
 8002e2c:	682b      	ldr	r3, [r5, #0]
 8002e2e:	4233      	tst	r3, r6
 8002e30:	d000      	beq.n	8002e34 <HAL_RCC_OscConfig+0x394>
 8002e32:	e64f      	b.n	8002ad4 <HAL_RCC_OscConfig+0x34>
 8002e34:	f7ff f992 	bl	800215c <HAL_GetTick>
 8002e38:	1b00      	subs	r0, r0, r4
 8002e3a:	2802      	cmp	r0, #2
 8002e3c:	d9f6      	bls.n	8002e2c <HAL_RCC_OscConfig+0x38c>
 8002e3e:	e673      	b.n	8002b28 <HAL_RCC_OscConfig+0x88>
 8002e40:	f7ff f98c 	bl	800215c <HAL_GetTick>
 8002e44:	1b80      	subs	r0, r0, r6
 8002e46:	2802      	cmp	r0, #2
 8002e48:	d9cf      	bls.n	8002dea <HAL_RCC_OscConfig+0x34a>
 8002e4a:	e66d      	b.n	8002b28 <HAL_RCC_OscConfig+0x88>
 8002e4c:	682b      	ldr	r3, [r5, #0]
 8002e4e:	2680      	movs	r6, #128	@ 0x80
 8002e50:	4013      	ands	r3, r2
 8002e52:	602b      	str	r3, [r5, #0]
 8002e54:	f7ff f982 	bl	800215c <HAL_GetTick>
 8002e58:	0004      	movs	r4, r0
 8002e5a:	04b6      	lsls	r6, r6, #18
 8002e5c:	682b      	ldr	r3, [r5, #0]
 8002e5e:	4233      	tst	r3, r6
 8002e60:	d104      	bne.n	8002e6c <HAL_RCC_OscConfig+0x3cc>
 8002e62:	68eb      	ldr	r3, [r5, #12]
 8002e64:	4a1b      	ldr	r2, [pc, #108]	@ (8002ed4 <HAL_RCC_OscConfig+0x434>)
 8002e66:	4013      	ands	r3, r2
 8002e68:	60eb      	str	r3, [r5, #12]
 8002e6a:	e633      	b.n	8002ad4 <HAL_RCC_OscConfig+0x34>
 8002e6c:	f7ff f976 	bl	800215c <HAL_GetTick>
 8002e70:	1b00      	subs	r0, r0, r4
 8002e72:	2802      	cmp	r0, #2
 8002e74:	d9f2      	bls.n	8002e5c <HAL_RCC_OscConfig+0x3bc>
 8002e76:	e657      	b.n	8002b28 <HAL_RCC_OscConfig+0x88>
 8002e78:	2b01      	cmp	r3, #1
 8002e7a:	d100      	bne.n	8002e7e <HAL_RCC_OscConfig+0x3de>
 8002e7c:	e615      	b.n	8002aaa <HAL_RCC_OscConfig+0xa>
 8002e7e:	2203      	movs	r2, #3
 8002e80:	68e8      	ldr	r0, [r5, #12]
 8002e82:	6a21      	ldr	r1, [r4, #32]
 8002e84:	4002      	ands	r2, r0
 8002e86:	428a      	cmp	r2, r1
 8002e88:	d000      	beq.n	8002e8c <HAL_RCC_OscConfig+0x3ec>
 8002e8a:	e60e      	b.n	8002aaa <HAL_RCC_OscConfig+0xa>
 8002e8c:	2270      	movs	r2, #112	@ 0x70
 8002e8e:	6a61      	ldr	r1, [r4, #36]	@ 0x24
 8002e90:	4002      	ands	r2, r0
 8002e92:	428a      	cmp	r2, r1
 8002e94:	d000      	beq.n	8002e98 <HAL_RCC_OscConfig+0x3f8>
 8002e96:	e608      	b.n	8002aaa <HAL_RCC_OscConfig+0xa>
 8002e98:	21fe      	movs	r1, #254	@ 0xfe
 8002e9a:	6aa2      	ldr	r2, [r4, #40]	@ 0x28
 8002e9c:	01c9      	lsls	r1, r1, #7
 8002e9e:	4001      	ands	r1, r0
 8002ea0:	0212      	lsls	r2, r2, #8
 8002ea2:	4291      	cmp	r1, r2
 8002ea4:	d000      	beq.n	8002ea8 <HAL_RCC_OscConfig+0x408>
 8002ea6:	e600      	b.n	8002aaa <HAL_RCC_OscConfig+0xa>
 8002ea8:	22f8      	movs	r2, #248	@ 0xf8
 8002eaa:	6ae1      	ldr	r1, [r4, #44]	@ 0x2c
 8002eac:	0392      	lsls	r2, r2, #14
 8002eae:	4002      	ands	r2, r0
 8002eb0:	428a      	cmp	r2, r1
 8002eb2:	d000      	beq.n	8002eb6 <HAL_RCC_OscConfig+0x416>
 8002eb4:	e5f9      	b.n	8002aaa <HAL_RCC_OscConfig+0xa>
 8002eb6:	6b23      	ldr	r3, [r4, #48]	@ 0x30
 8002eb8:	0f40      	lsrs	r0, r0, #29
 8002eba:	0740      	lsls	r0, r0, #29
 8002ebc:	1ac0      	subs	r0, r0, r3
 8002ebe:	1e43      	subs	r3, r0, #1
 8002ec0:	4198      	sbcs	r0, r3
 8002ec2:	b2c0      	uxtb	r0, r0
 8002ec4:	e5f2      	b.n	8002aac <HAL_RCC_OscConfig+0xc>
 8002ec6:	46c0      	nop			@ (mov r8, r8)
 8002ec8:	40021000 	.word	0x40021000
 8002ecc:	feffffff 	.word	0xfeffffff
 8002ed0:	1fc1808c 	.word	0x1fc1808c
 8002ed4:	effefffc 	.word	0xeffefffc

08002ed8 <HAL_RCC_GetSysClockFreq>:
 8002ed8:	2338      	movs	r3, #56	@ 0x38
 8002eda:	b570      	push	{r4, r5, r6, lr}
 8002edc:	4c1d      	ldr	r4, [pc, #116]	@ (8002f54 <HAL_RCC_GetSysClockFreq+0x7c>)
 8002ede:	68a2      	ldr	r2, [r4, #8]
 8002ee0:	421a      	tst	r2, r3
 8002ee2:	d105      	bne.n	8002ef0 <HAL_RCC_GetSysClockFreq+0x18>
 8002ee4:	6823      	ldr	r3, [r4, #0]
 8002ee6:	481c      	ldr	r0, [pc, #112]	@ (8002f58 <HAL_RCC_GetSysClockFreq+0x80>)
 8002ee8:	049b      	lsls	r3, r3, #18
 8002eea:	0f5b      	lsrs	r3, r3, #29
 8002eec:	40d8      	lsrs	r0, r3
 8002eee:	bd70      	pop	{r4, r5, r6, pc}
 8002ef0:	68a2      	ldr	r2, [r4, #8]
 8002ef2:	401a      	ands	r2, r3
 8002ef4:	2a08      	cmp	r2, #8
 8002ef6:	d027      	beq.n	8002f48 <HAL_RCC_GetSysClockFreq+0x70>
 8002ef8:	68a2      	ldr	r2, [r4, #8]
 8002efa:	401a      	ands	r2, r3
 8002efc:	2a10      	cmp	r2, #16
 8002efe:	d117      	bne.n	8002f30 <HAL_RCC_GetSysClockFreq+0x58>
 8002f00:	68e3      	ldr	r3, [r4, #12]
 8002f02:	68e1      	ldr	r1, [r4, #12]
 8002f04:	43db      	mvns	r3, r3
 8002f06:	68e5      	ldr	r5, [r4, #12]
 8002f08:	0649      	lsls	r1, r1, #25
 8002f0a:	0f49      	lsrs	r1, r1, #29
 8002f0c:	326f      	adds	r2, #111	@ 0x6f
 8002f0e:	0a2d      	lsrs	r5, r5, #8
 8002f10:	3101      	adds	r1, #1
 8002f12:	4015      	ands	r5, r2
 8002f14:	079b      	lsls	r3, r3, #30
 8002f16:	d109      	bne.n	8002f2c <HAL_RCC_GetSysClockFreq+0x54>
 8002f18:	4810      	ldr	r0, [pc, #64]	@ (8002f5c <HAL_RCC_GetSysClockFreq+0x84>)
 8002f1a:	f7fd f8fb 	bl	8000114 <__udivsi3>
 8002f1e:	68e1      	ldr	r1, [r4, #12]
 8002f20:	4368      	muls	r0, r5
 8002f22:	0f49      	lsrs	r1, r1, #29
 8002f24:	3101      	adds	r1, #1
 8002f26:	f7fd f8f5 	bl	8000114 <__udivsi3>
 8002f2a:	e7e0      	b.n	8002eee <HAL_RCC_GetSysClockFreq+0x16>
 8002f2c:	480a      	ldr	r0, [pc, #40]	@ (8002f58 <HAL_RCC_GetSysClockFreq+0x80>)
 8002f2e:	e7f4      	b.n	8002f1a <HAL_RCC_GetSysClockFreq+0x42>
 8002f30:	68a2      	ldr	r2, [r4, #8]
 8002f32:	401a      	ands	r2, r3
 8002f34:	2a20      	cmp	r2, #32
 8002f36:	d009      	beq.n	8002f4c <HAL_RCC_GetSysClockFreq+0x74>
 8002f38:	68a2      	ldr	r2, [r4, #8]
 8002f3a:	2000      	movs	r0, #0
 8002f3c:	4013      	ands	r3, r2
 8002f3e:	2b18      	cmp	r3, #24
 8002f40:	d1d5      	bne.n	8002eee <HAL_RCC_GetSysClockFreq+0x16>
 8002f42:	20fa      	movs	r0, #250	@ 0xfa
 8002f44:	01c0      	lsls	r0, r0, #7
 8002f46:	e7d2      	b.n	8002eee <HAL_RCC_GetSysClockFreq+0x16>
 8002f48:	4804      	ldr	r0, [pc, #16]	@ (8002f5c <HAL_RCC_GetSysClockFreq+0x84>)
 8002f4a:	e7d0      	b.n	8002eee <HAL_RCC_GetSysClockFreq+0x16>
 8002f4c:	2080      	movs	r0, #128	@ 0x80
 8002f4e:	0200      	lsls	r0, r0, #8
 8002f50:	e7cd      	b.n	8002eee <HAL_RCC_GetSysClockFreq+0x16>
 8002f52:	46c0      	nop			@ (mov r8, r8)
 8002f54:	40021000 	.word	0x40021000
 8002f58:	00f42400 	.word	0x00f42400
 8002f5c:	007a1200 	.word	0x007a1200

08002f60 <HAL_RCC_ClockConfig>:
 8002f60:	b5f7      	push	{r0, r1, r2, r4, r5, r6, r7, lr}
 8002f62:	0004      	movs	r4, r0
 8002f64:	000d      	movs	r5, r1
 8002f66:	2800      	cmp	r0, #0
 8002f68:	d101      	bne.n	8002f6e <HAL_RCC_ClockConfig+0xe>
 8002f6a:	2001      	movs	r0, #1
 8002f6c:	bdfe      	pop	{r1, r2, r3, r4, r5, r6, r7, pc}
 8002f6e:	2707      	movs	r7, #7
 8002f70:	4e48      	ldr	r6, [pc, #288]	@ (8003094 <HAL_RCC_ClockConfig+0x134>)
 8002f72:	6833      	ldr	r3, [r6, #0]
 8002f74:	403b      	ands	r3, r7
 8002f76:	428b      	cmp	r3, r1
 8002f78:	d32a      	bcc.n	8002fd0 <HAL_RCC_ClockConfig+0x70>
 8002f7a:	6822      	ldr	r2, [r4, #0]
 8002f7c:	0793      	lsls	r3, r2, #30
 8002f7e:	d43b      	bmi.n	8002ff8 <HAL_RCC_ClockConfig+0x98>
 8002f80:	07d2      	lsls	r2, r2, #31
 8002f82:	d448      	bmi.n	8003016 <HAL_RCC_ClockConfig+0xb6>
 8002f84:	2707      	movs	r7, #7
 8002f86:	6833      	ldr	r3, [r6, #0]
 8002f88:	403b      	ands	r3, r7
 8002f8a:	42ab      	cmp	r3, r5
 8002f8c:	d90a      	bls.n	8002fa4 <HAL_RCC_ClockConfig+0x44>
 8002f8e:	6833      	ldr	r3, [r6, #0]
 8002f90:	43bb      	bics	r3, r7
 8002f92:	432b      	orrs	r3, r5
 8002f94:	6033      	str	r3, [r6, #0]
 8002f96:	f7ff f8e1 	bl	800215c <HAL_GetTick>
 8002f9a:	9001      	str	r0, [sp, #4]
 8002f9c:	6833      	ldr	r3, [r6, #0]
 8002f9e:	403b      	ands	r3, r7
 8002fa0:	42ab      	cmp	r3, r5
 8002fa2:	d168      	bne.n	8003076 <HAL_RCC_ClockConfig+0x116>
 8002fa4:	6823      	ldr	r3, [r4, #0]
 8002fa6:	4d3c      	ldr	r5, [pc, #240]	@ (8003098 <HAL_RCC_ClockConfig+0x138>)
 8002fa8:	075b      	lsls	r3, r3, #29
 8002faa:	d46c      	bmi.n	8003086 <HAL_RCC_ClockConfig+0x126>
 8002fac:	f7ff ff94 	bl	8002ed8 <HAL_RCC_GetSysClockFreq>
 8002fb0:	68ab      	ldr	r3, [r5, #8]
 8002fb2:	493a      	ldr	r1, [pc, #232]	@ (800309c <HAL_RCC_ClockConfig+0x13c>)
 8002fb4:	051b      	lsls	r3, r3, #20
 8002fb6:	0f1b      	lsrs	r3, r3, #28
 8002fb8:	009b      	lsls	r3, r3, #2
 8002fba:	585b      	ldr	r3, [r3, r1]
 8002fbc:	211f      	movs	r1, #31
 8002fbe:	400b      	ands	r3, r1
 8002fc0:	40d8      	lsrs	r0, r3
 8002fc2:	4a37      	ldr	r2, [pc, #220]	@ (80030a0 <HAL_RCC_ClockConfig+0x140>)
 8002fc4:	4b37      	ldr	r3, [pc, #220]	@ (80030a4 <HAL_RCC_ClockConfig+0x144>)
 8002fc6:	6010      	str	r0, [r2, #0]
 8002fc8:	6818      	ldr	r0, [r3, #0]
 8002fca:	f7ff f87f 	bl	80020cc <HAL_InitTick>
 8002fce:	e7cd      	b.n	8002f6c <HAL_RCC_ClockConfig+0xc>
 8002fd0:	6833      	ldr	r3, [r6, #0]
 8002fd2:	43bb      	bics	r3, r7
 8002fd4:	430b      	orrs	r3, r1
 8002fd6:	6033      	str	r3, [r6, #0]
 8002fd8:	f7ff f8c0 	bl	800215c <HAL_GetTick>
 8002fdc:	9001      	str	r0, [sp, #4]
 8002fde:	6833      	ldr	r3, [r6, #0]
 8002fe0:	403b      	ands	r3, r7
 8002fe2:	42ab      	cmp	r3, r5
 8002fe4:	d0c9      	beq.n	8002f7a <HAL_RCC_ClockConfig+0x1a>
 8002fe6:	f7ff f8b9 	bl	800215c <HAL_GetTick>
 8002fea:	9b01      	ldr	r3, [sp, #4]
 8002fec:	1ac0      	subs	r0, r0, r3
 8002fee:	4b2e      	ldr	r3, [pc, #184]	@ (80030a8 <HAL_RCC_ClockConfig+0x148>)
 8002ff0:	4298      	cmp	r0, r3
 8002ff2:	d9f4      	bls.n	8002fde <HAL_RCC_ClockConfig+0x7e>
 8002ff4:	2003      	movs	r0, #3
 8002ff6:	e7b9      	b.n	8002f6c <HAL_RCC_ClockConfig+0xc>
 8002ff8:	4927      	ldr	r1, [pc, #156]	@ (8003098 <HAL_RCC_ClockConfig+0x138>)
 8002ffa:	0753      	lsls	r3, r2, #29
 8002ffc:	d504      	bpl.n	8003008 <HAL_RCC_ClockConfig+0xa8>
 8002ffe:	23e0      	movs	r3, #224	@ 0xe0
 8003000:	6888      	ldr	r0, [r1, #8]
 8003002:	01db      	lsls	r3, r3, #7
 8003004:	4303      	orrs	r3, r0
 8003006:	608b      	str	r3, [r1, #8]
 8003008:	688b      	ldr	r3, [r1, #8]
 800300a:	4828      	ldr	r0, [pc, #160]	@ (80030ac <HAL_RCC_ClockConfig+0x14c>)
 800300c:	4003      	ands	r3, r0
 800300e:	68a0      	ldr	r0, [r4, #8]
 8003010:	4303      	orrs	r3, r0
 8003012:	608b      	str	r3, [r1, #8]
 8003014:	e7b4      	b.n	8002f80 <HAL_RCC_ClockConfig+0x20>
 8003016:	6860      	ldr	r0, [r4, #4]
 8003018:	4f1f      	ldr	r7, [pc, #124]	@ (8003098 <HAL_RCC_ClockConfig+0x138>)
 800301a:	2803      	cmp	r0, #3
 800301c:	d829      	bhi.n	8003072 <HAL_RCC_ClockConfig+0x112>
 800301e:	f7fd f86f 	bl	8000100 <__gnu_thumb1_case_uqi>
 8003022:	0220      	.short	0x0220
 8003024:	241c      	.short	0x241c
 8003026:	683b      	ldr	r3, [r7, #0]
 8003028:	039b      	lsls	r3, r3, #14
 800302a:	d59e      	bpl.n	8002f6a <HAL_RCC_ClockConfig+0xa>
 800302c:	2207      	movs	r2, #7
 800302e:	68bb      	ldr	r3, [r7, #8]
 8003030:	4393      	bics	r3, r2
 8003032:	4303      	orrs	r3, r0
 8003034:	60bb      	str	r3, [r7, #8]
 8003036:	f7ff f891 	bl	800215c <HAL_GetTick>
 800303a:	9001      	str	r0, [sp, #4]
 800303c:	2338      	movs	r3, #56	@ 0x38
 800303e:	68ba      	ldr	r2, [r7, #8]
 8003040:	401a      	ands	r2, r3
 8003042:	6863      	ldr	r3, [r4, #4]
 8003044:	00db      	lsls	r3, r3, #3
 8003046:	429a      	cmp	r2, r3
 8003048:	d09c      	beq.n	8002f84 <HAL_RCC_ClockConfig+0x24>
 800304a:	f7ff f887 	bl	800215c <HAL_GetTick>
 800304e:	9b01      	ldr	r3, [sp, #4]
 8003050:	1ac0      	subs	r0, r0, r3
 8003052:	4b15      	ldr	r3, [pc, #84]	@ (80030a8 <HAL_RCC_ClockConfig+0x148>)
 8003054:	4298      	cmp	r0, r3
 8003056:	d9f1      	bls.n	800303c <HAL_RCC_ClockConfig+0xdc>
 8003058:	e7cc      	b.n	8002ff4 <HAL_RCC_ClockConfig+0x94>
 800305a:	683b      	ldr	r3, [r7, #0]
 800305c:	019b      	lsls	r3, r3, #6
 800305e:	d4e5      	bmi.n	800302c <HAL_RCC_ClockConfig+0xcc>
 8003060:	e783      	b.n	8002f6a <HAL_RCC_ClockConfig+0xa>
 8003062:	683b      	ldr	r3, [r7, #0]
 8003064:	055b      	lsls	r3, r3, #21
 8003066:	d4e1      	bmi.n	800302c <HAL_RCC_ClockConfig+0xcc>
 8003068:	e77f      	b.n	8002f6a <HAL_RCC_ClockConfig+0xa>
 800306a:	6e3b      	ldr	r3, [r7, #96]	@ 0x60
 800306c:	079b      	lsls	r3, r3, #30
 800306e:	d4dd      	bmi.n	800302c <HAL_RCC_ClockConfig+0xcc>
 8003070:	e77b      	b.n	8002f6a <HAL_RCC_ClockConfig+0xa>
 8003072:	6dfb      	ldr	r3, [r7, #92]	@ 0x5c
 8003074:	e7fa      	b.n	800306c <HAL_RCC_ClockConfig+0x10c>
 8003076:	f7ff f871 	bl	800215c <HAL_GetTick>
 800307a:	9b01      	ldr	r3, [sp, #4]
 800307c:	1ac0      	subs	r0, r0, r3
 800307e:	4b0a      	ldr	r3, [pc, #40]	@ (80030a8 <HAL_RCC_ClockConfig+0x148>)
 8003080:	4298      	cmp	r0, r3
 8003082:	d98b      	bls.n	8002f9c <HAL_RCC_ClockConfig+0x3c>
 8003084:	e7b6      	b.n	8002ff4 <HAL_RCC_ClockConfig+0x94>
 8003086:	68ab      	ldr	r3, [r5, #8]
 8003088:	4a09      	ldr	r2, [pc, #36]	@ (80030b0 <HAL_RCC_ClockConfig+0x150>)
 800308a:	4013      	ands	r3, r2
 800308c:	68e2      	ldr	r2, [r4, #12]
 800308e:	4313      	orrs	r3, r2
 8003090:	60ab      	str	r3, [r5, #8]
 8003092:	e78b      	b.n	8002fac <HAL_RCC_ClockConfig+0x4c>
 8003094:	40022000 	.word	0x40022000
 8003098:	40021000 	.word	0x40021000
 800309c:	080044a8 	.word	0x080044a8
 80030a0:	20000000 	.word	0x20000000
 80030a4:	20000008 	.word	0x20000008
 80030a8:	00001388 	.word	0x00001388
 80030ac:	fffff0ff 	.word	0xfffff0ff
 80030b0:	ffff8fff 	.word	0xffff8fff

080030b4 <HAL_RCCEx_PeriphCLKConfig>:
 80030b4:	b5f0      	push	{r4, r5, r6, r7, lr}
 80030b6:	6803      	ldr	r3, [r0, #0]
 80030b8:	0005      	movs	r5, r0
 80030ba:	b085      	sub	sp, #20
 80030bc:	2000      	movs	r0, #0
 80030be:	039b      	lsls	r3, r3, #14
 80030c0:	d551      	bpl.n	8003166 <HAL_RCCEx_PeriphCLKConfig+0xb2>
 80030c2:	2280      	movs	r2, #128	@ 0x80
 80030c4:	4c48      	ldr	r4, [pc, #288]	@ (80031e8 <HAL_RCCEx_PeriphCLKConfig+0x134>)
 80030c6:	0552      	lsls	r2, r2, #21
 80030c8:	6be3      	ldr	r3, [r4, #60]	@ 0x3c
 80030ca:	9000      	str	r0, [sp, #0]
 80030cc:	4213      	tst	r3, r2
 80030ce:	d108      	bne.n	80030e2 <HAL_RCCEx_PeriphCLKConfig+0x2e>
 80030d0:	6be3      	ldr	r3, [r4, #60]	@ 0x3c
 80030d2:	4313      	orrs	r3, r2
 80030d4:	63e3      	str	r3, [r4, #60]	@ 0x3c
 80030d6:	6be3      	ldr	r3, [r4, #60]	@ 0x3c
 80030d8:	4013      	ands	r3, r2
 80030da:	9303      	str	r3, [sp, #12]
 80030dc:	9b03      	ldr	r3, [sp, #12]
 80030de:	2301      	movs	r3, #1
 80030e0:	9300      	str	r3, [sp, #0]
 80030e2:	2780      	movs	r7, #128	@ 0x80
 80030e4:	4e41      	ldr	r6, [pc, #260]	@ (80031ec <HAL_RCCEx_PeriphCLKConfig+0x138>)
 80030e6:	007f      	lsls	r7, r7, #1
 80030e8:	6833      	ldr	r3, [r6, #0]
 80030ea:	433b      	orrs	r3, r7
 80030ec:	6033      	str	r3, [r6, #0]
 80030ee:	f7ff f835 	bl	800215c <HAL_GetTick>
 80030f2:	9001      	str	r0, [sp, #4]
 80030f4:	6833      	ldr	r3, [r6, #0]
 80030f6:	423b      	tst	r3, r7
 80030f8:	d027      	beq.n	800314a <HAL_RCCEx_PeriphCLKConfig+0x96>
 80030fa:	6de2      	ldr	r2, [r4, #92]	@ 0x5c
 80030fc:	23c0      	movs	r3, #192	@ 0xc0
 80030fe:	0010      	movs	r0, r2
 8003100:	009b      	lsls	r3, r3, #2
 8003102:	6969      	ldr	r1, [r5, #20]
 8003104:	4e3a      	ldr	r6, [pc, #232]	@ (80031f0 <HAL_RCCEx_PeriphCLKConfig+0x13c>)
 8003106:	4018      	ands	r0, r3
 8003108:	421a      	tst	r2, r3
 800310a:	d017      	beq.n	800313c <HAL_RCCEx_PeriphCLKConfig+0x88>
 800310c:	4281      	cmp	r1, r0
 800310e:	d015      	beq.n	800313c <HAL_RCCEx_PeriphCLKConfig+0x88>
 8003110:	2280      	movs	r2, #128	@ 0x80
 8003112:	6de3      	ldr	r3, [r4, #92]	@ 0x5c
 8003114:	6de0      	ldr	r0, [r4, #92]	@ 0x5c
 8003116:	0019      	movs	r1, r3
 8003118:	0252      	lsls	r2, r2, #9
 800311a:	4302      	orrs	r2, r0
 800311c:	65e2      	str	r2, [r4, #92]	@ 0x5c
 800311e:	6de2      	ldr	r2, [r4, #92]	@ 0x5c
 8003120:	4834      	ldr	r0, [pc, #208]	@ (80031f4 <HAL_RCCEx_PeriphCLKConfig+0x140>)
 8003122:	4031      	ands	r1, r6
 8003124:	4002      	ands	r2, r0
 8003126:	65e2      	str	r2, [r4, #92]	@ 0x5c
 8003128:	65e1      	str	r1, [r4, #92]	@ 0x5c
 800312a:	07db      	lsls	r3, r3, #31
 800312c:	d506      	bpl.n	800313c <HAL_RCCEx_PeriphCLKConfig+0x88>
 800312e:	f7ff f815 	bl	800215c <HAL_GetTick>
 8003132:	0007      	movs	r7, r0
 8003134:	2202      	movs	r2, #2
 8003136:	6de3      	ldr	r3, [r4, #92]	@ 0x5c
 8003138:	4213      	tst	r3, r2
 800313a:	d04d      	beq.n	80031d8 <HAL_RCCEx_PeriphCLKConfig+0x124>
 800313c:	6de3      	ldr	r3, [r4, #92]	@ 0x5c
 800313e:	696a      	ldr	r2, [r5, #20]
 8003140:	4033      	ands	r3, r6
 8003142:	4313      	orrs	r3, r2
 8003144:	2000      	movs	r0, #0
 8003146:	65e3      	str	r3, [r4, #92]	@ 0x5c
 8003148:	e006      	b.n	8003158 <HAL_RCCEx_PeriphCLKConfig+0xa4>
 800314a:	f7ff f807 	bl	800215c <HAL_GetTick>
 800314e:	9b01      	ldr	r3, [sp, #4]
 8003150:	1ac0      	subs	r0, r0, r3
 8003152:	2802      	cmp	r0, #2
 8003154:	d9ce      	bls.n	80030f4 <HAL_RCCEx_PeriphCLKConfig+0x40>
 8003156:	2003      	movs	r0, #3
 8003158:	9b00      	ldr	r3, [sp, #0]
 800315a:	2b01      	cmp	r3, #1
 800315c:	d103      	bne.n	8003166 <HAL_RCCEx_PeriphCLKConfig+0xb2>
 800315e:	6be3      	ldr	r3, [r4, #60]	@ 0x3c
 8003160:	4a25      	ldr	r2, [pc, #148]	@ (80031f8 <HAL_RCCEx_PeriphCLKConfig+0x144>)
 8003162:	4013      	ands	r3, r2
 8003164:	63e3      	str	r3, [r4, #60]	@ 0x3c
 8003166:	682a      	ldr	r2, [r5, #0]
 8003168:	07d3      	lsls	r3, r2, #31
 800316a:	d506      	bpl.n	800317a <HAL_RCCEx_PeriphCLKConfig+0xc6>
 800316c:	2403      	movs	r4, #3
 800316e:	491e      	ldr	r1, [pc, #120]	@ (80031e8 <HAL_RCCEx_PeriphCLKConfig+0x134>)
 8003170:	6d4b      	ldr	r3, [r1, #84]	@ 0x54
 8003172:	43a3      	bics	r3, r4
 8003174:	686c      	ldr	r4, [r5, #4]
 8003176:	4323      	orrs	r3, r4
 8003178:	654b      	str	r3, [r1, #84]	@ 0x54
 800317a:	0693      	lsls	r3, r2, #26
 800317c:	d506      	bpl.n	800318c <HAL_RCCEx_PeriphCLKConfig+0xd8>
 800317e:	491a      	ldr	r1, [pc, #104]	@ (80031e8 <HAL_RCCEx_PeriphCLKConfig+0x134>)
 8003180:	4c1e      	ldr	r4, [pc, #120]	@ (80031fc <HAL_RCCEx_PeriphCLKConfig+0x148>)
 8003182:	6d4b      	ldr	r3, [r1, #84]	@ 0x54
 8003184:	4023      	ands	r3, r4
 8003186:	68ac      	ldr	r4, [r5, #8]
 8003188:	4323      	orrs	r3, r4
 800318a:	654b      	str	r3, [r1, #84]	@ 0x54
 800318c:	0453      	lsls	r3, r2, #17
 800318e:	d50f      	bpl.n	80031b0 <HAL_RCCEx_PeriphCLKConfig+0xfc>
 8003190:	4915      	ldr	r1, [pc, #84]	@ (80031e8 <HAL_RCCEx_PeriphCLKConfig+0x134>)
 8003192:	692c      	ldr	r4, [r5, #16]
 8003194:	6d4b      	ldr	r3, [r1, #84]	@ 0x54
 8003196:	009b      	lsls	r3, r3, #2
 8003198:	089b      	lsrs	r3, r3, #2
 800319a:	4323      	orrs	r3, r4
 800319c:	654b      	str	r3, [r1, #84]	@ 0x54
 800319e:	2380      	movs	r3, #128	@ 0x80
 80031a0:	05db      	lsls	r3, r3, #23
 80031a2:	429c      	cmp	r4, r3
 80031a4:	d104      	bne.n	80031b0 <HAL_RCCEx_PeriphCLKConfig+0xfc>
 80031a6:	2380      	movs	r3, #128	@ 0x80
 80031a8:	68cc      	ldr	r4, [r1, #12]
 80031aa:	025b      	lsls	r3, r3, #9
 80031ac:	4323      	orrs	r3, r4
 80031ae:	60cb      	str	r3, [r1, #12]
 80031b0:	0512      	lsls	r2, r2, #20
 80031b2:	d50f      	bpl.n	80031d4 <HAL_RCCEx_PeriphCLKConfig+0x120>
 80031b4:	4a0c      	ldr	r2, [pc, #48]	@ (80031e8 <HAL_RCCEx_PeriphCLKConfig+0x134>)
 80031b6:	4c12      	ldr	r4, [pc, #72]	@ (8003200 <HAL_RCCEx_PeriphCLKConfig+0x14c>)
 80031b8:	6d53      	ldr	r3, [r2, #84]	@ 0x54
 80031ba:	68e9      	ldr	r1, [r5, #12]
 80031bc:	4023      	ands	r3, r4
 80031be:	430b      	orrs	r3, r1
 80031c0:	6553      	str	r3, [r2, #84]	@ 0x54
 80031c2:	2380      	movs	r3, #128	@ 0x80
 80031c4:	01db      	lsls	r3, r3, #7
 80031c6:	4299      	cmp	r1, r3
 80031c8:	d104      	bne.n	80031d4 <HAL_RCCEx_PeriphCLKConfig+0x120>
 80031ca:	2380      	movs	r3, #128	@ 0x80
 80031cc:	68d1      	ldr	r1, [r2, #12]
 80031ce:	025b      	lsls	r3, r3, #9
 80031d0:	430b      	orrs	r3, r1
 80031d2:	60d3      	str	r3, [r2, #12]
 80031d4:	b005      	add	sp, #20
 80031d6:	bdf0      	pop	{r4, r5, r6, r7, pc}
 80031d8:	f7fe ffc0 	bl	800215c <HAL_GetTick>
 80031dc:	4b09      	ldr	r3, [pc, #36]	@ (8003204 <HAL_RCCEx_PeriphCLKConfig+0x150>)
 80031de:	1bc0      	subs	r0, r0, r7
 80031e0:	4298      	cmp	r0, r3
 80031e2:	d9a7      	bls.n	8003134 <HAL_RCCEx_PeriphCLKConfig+0x80>
 80031e4:	e7b7      	b.n	8003156 <HAL_RCCEx_PeriphCLKConfig+0xa2>
 80031e6:	46c0      	nop			@ (mov r8, r8)
 80031e8:	40021000 	.word	0x40021000
 80031ec:	40007000 	.word	0x40007000
 80031f0:	fffffcff 	.word	0xfffffcff
 80031f4:	fffeffff 	.word	0xfffeffff
 80031f8:	efffffff 	.word	0xefffffff
 80031fc:	ffffcfff 	.word	0xffffcfff
 8003200:	ffff3fff 	.word	0xffff3fff
 8003204:	00001388 	.word	0x00001388

08003208 <TIM_OC1_SetConfig>:
 8003208:	b570      	push	{r4, r5, r6, lr}
 800320a:	2401      	movs	r4, #1
 800320c:	6a03      	ldr	r3, [r0, #32]
 800320e:	6a02      	ldr	r2, [r0, #32]
 8003210:	43a2      	bics	r2, r4
 8003212:	6202      	str	r2, [r0, #32]
 8003214:	6844      	ldr	r4, [r0, #4]
 8003216:	4a12      	ldr	r2, [pc, #72]	@ (8003260 <TIM_OC1_SetConfig+0x58>)
 8003218:	6985      	ldr	r5, [r0, #24]
 800321a:	4015      	ands	r5, r2
 800321c:	680a      	ldr	r2, [r1, #0]
 800321e:	4315      	orrs	r5, r2
 8003220:	2202      	movs	r2, #2
 8003222:	4393      	bics	r3, r2
 8003224:	688a      	ldr	r2, [r1, #8]
 8003226:	4313      	orrs	r3, r2
 8003228:	4a0e      	ldr	r2, [pc, #56]	@ (8003264 <TIM_OC1_SetConfig+0x5c>)
 800322a:	4290      	cmp	r0, r2
 800322c:	d005      	beq.n	800323a <TIM_OC1_SetConfig+0x32>
 800322e:	4a0e      	ldr	r2, [pc, #56]	@ (8003268 <TIM_OC1_SetConfig+0x60>)
 8003230:	4290      	cmp	r0, r2
 8003232:	d002      	beq.n	800323a <TIM_OC1_SetConfig+0x32>
 8003234:	4a0d      	ldr	r2, [pc, #52]	@ (800326c <TIM_OC1_SetConfig+0x64>)
 8003236:	4290      	cmp	r0, r2
 8003238:	d10b      	bne.n	8003252 <TIM_OC1_SetConfig+0x4a>
 800323a:	2208      	movs	r2, #8
 800323c:	4393      	bics	r3, r2
 800323e:	68ca      	ldr	r2, [r1, #12]
 8003240:	698e      	ldr	r6, [r1, #24]
 8003242:	4313      	orrs	r3, r2
 8003244:	2204      	movs	r2, #4
 8003246:	4393      	bics	r3, r2
 8003248:	4a09      	ldr	r2, [pc, #36]	@ (8003270 <TIM_OC1_SetConfig+0x68>)
 800324a:	4022      	ands	r2, r4
 800324c:	694c      	ldr	r4, [r1, #20]
 800324e:	4334      	orrs	r4, r6
 8003250:	4314      	orrs	r4, r2
 8003252:	684a      	ldr	r2, [r1, #4]
 8003254:	6044      	str	r4, [r0, #4]
 8003256:	6185      	str	r5, [r0, #24]
 8003258:	6342      	str	r2, [r0, #52]	@ 0x34
 800325a:	6203      	str	r3, [r0, #32]
 800325c:	bd70      	pop	{r4, r5, r6, pc}
 800325e:	46c0      	nop			@ (mov r8, r8)
 8003260:	fffeff8c 	.word	0xfffeff8c
 8003264:	40012c00 	.word	0x40012c00
 8003268:	40014400 	.word	0x40014400
 800326c:	40014800 	.word	0x40014800
 8003270:	fffffcff 	.word	0xfffffcff

08003274 <TIM_OC3_SetConfig>:
 8003274:	b570      	push	{r4, r5, r6, lr}
 8003276:	4a17      	ldr	r2, [pc, #92]	@ (80032d4 <TIM_OC3_SetConfig+0x60>)
 8003278:	6a05      	ldr	r5, [r0, #32]
 800327a:	6a03      	ldr	r3, [r0, #32]
 800327c:	4013      	ands	r3, r2
 800327e:	6203      	str	r3, [r0, #32]
 8003280:	6842      	ldr	r2, [r0, #4]
 8003282:	4b15      	ldr	r3, [pc, #84]	@ (80032d8 <TIM_OC3_SetConfig+0x64>)
 8003284:	69c4      	ldr	r4, [r0, #28]
 8003286:	401c      	ands	r4, r3
 8003288:	680b      	ldr	r3, [r1, #0]
 800328a:	431c      	orrs	r4, r3
 800328c:	4b13      	ldr	r3, [pc, #76]	@ (80032dc <TIM_OC3_SetConfig+0x68>)
 800328e:	401d      	ands	r5, r3
 8003290:	688b      	ldr	r3, [r1, #8]
 8003292:	021b      	lsls	r3, r3, #8
 8003294:	432b      	orrs	r3, r5
 8003296:	4d12      	ldr	r5, [pc, #72]	@ (80032e0 <TIM_OC3_SetConfig+0x6c>)
 8003298:	42a8      	cmp	r0, r5
 800329a:	d10e      	bne.n	80032ba <TIM_OC3_SetConfig+0x46>
 800329c:	4d11      	ldr	r5, [pc, #68]	@ (80032e4 <TIM_OC3_SetConfig+0x70>)
 800329e:	401d      	ands	r5, r3
 80032a0:	68cb      	ldr	r3, [r1, #12]
 80032a2:	021b      	lsls	r3, r3, #8
 80032a4:	432b      	orrs	r3, r5
 80032a6:	4d10      	ldr	r5, [pc, #64]	@ (80032e8 <TIM_OC3_SetConfig+0x74>)
 80032a8:	402b      	ands	r3, r5
 80032aa:	4d10      	ldr	r5, [pc, #64]	@ (80032ec <TIM_OC3_SetConfig+0x78>)
 80032ac:	698e      	ldr	r6, [r1, #24]
 80032ae:	4015      	ands	r5, r2
 80032b0:	694a      	ldr	r2, [r1, #20]
 80032b2:	4332      	orrs	r2, r6
 80032b4:	0112      	lsls	r2, r2, #4
 80032b6:	432a      	orrs	r2, r5
 80032b8:	e005      	b.n	80032c6 <TIM_OC3_SetConfig+0x52>
 80032ba:	4d0d      	ldr	r5, [pc, #52]	@ (80032f0 <TIM_OC3_SetConfig+0x7c>)
 80032bc:	42a8      	cmp	r0, r5
 80032be:	d0f4      	beq.n	80032aa <TIM_OC3_SetConfig+0x36>
 80032c0:	4d0c      	ldr	r5, [pc, #48]	@ (80032f4 <TIM_OC3_SetConfig+0x80>)
 80032c2:	42a8      	cmp	r0, r5
 80032c4:	d0f1      	beq.n	80032aa <TIM_OC3_SetConfig+0x36>
 80032c6:	6042      	str	r2, [r0, #4]
 80032c8:	684a      	ldr	r2, [r1, #4]
 80032ca:	61c4      	str	r4, [r0, #28]
 80032cc:	63c2      	str	r2, [r0, #60]	@ 0x3c
 80032ce:	6203      	str	r3, [r0, #32]
 80032d0:	bd70      	pop	{r4, r5, r6, pc}
 80032d2:	46c0      	nop			@ (mov r8, r8)
 80032d4:	fffffeff 	.word	0xfffffeff
 80032d8:	fffeff8c 	.word	0xfffeff8c
 80032dc:	fffffdff 	.word	0xfffffdff
 80032e0:	40012c00 	.word	0x40012c00
 80032e4:	fffff7ff 	.word	0xfffff7ff
 80032e8:	fffffbff 	.word	0xfffffbff
 80032ec:	ffffcfff 	.word	0xffffcfff
 80032f0:	40014400 	.word	0x40014400
 80032f4:	40014800 	.word	0x40014800

080032f8 <TIM_OC4_SetConfig>:
 80032f8:	b530      	push	{r4, r5, lr}
 80032fa:	4a12      	ldr	r2, [pc, #72]	@ (8003344 <TIM_OC4_SetConfig+0x4c>)
 80032fc:	6a04      	ldr	r4, [r0, #32]
 80032fe:	6a03      	ldr	r3, [r0, #32]
 8003300:	4d11      	ldr	r5, [pc, #68]	@ (8003348 <TIM_OC4_SetConfig+0x50>)
 8003302:	4013      	ands	r3, r2
 8003304:	6203      	str	r3, [r0, #32]
 8003306:	6843      	ldr	r3, [r0, #4]
 8003308:	69c2      	ldr	r2, [r0, #28]
 800330a:	402a      	ands	r2, r5
 800330c:	680d      	ldr	r5, [r1, #0]
 800330e:	022d      	lsls	r5, r5, #8
 8003310:	4315      	orrs	r5, r2
 8003312:	4a0e      	ldr	r2, [pc, #56]	@ (800334c <TIM_OC4_SetConfig+0x54>)
 8003314:	4014      	ands	r4, r2
 8003316:	688a      	ldr	r2, [r1, #8]
 8003318:	0312      	lsls	r2, r2, #12
 800331a:	4322      	orrs	r2, r4
 800331c:	4c0c      	ldr	r4, [pc, #48]	@ (8003350 <TIM_OC4_SetConfig+0x58>)
 800331e:	42a0      	cmp	r0, r4
 8003320:	d005      	beq.n	800332e <TIM_OC4_SetConfig+0x36>
 8003322:	4c0c      	ldr	r4, [pc, #48]	@ (8003354 <TIM_OC4_SetConfig+0x5c>)
 8003324:	42a0      	cmp	r0, r4
 8003326:	d002      	beq.n	800332e <TIM_OC4_SetConfig+0x36>
 8003328:	4c0b      	ldr	r4, [pc, #44]	@ (8003358 <TIM_OC4_SetConfig+0x60>)
 800332a:	42a0      	cmp	r0, r4
 800332c:	d104      	bne.n	8003338 <TIM_OC4_SetConfig+0x40>
 800332e:	4c0b      	ldr	r4, [pc, #44]	@ (800335c <TIM_OC4_SetConfig+0x64>)
 8003330:	401c      	ands	r4, r3
 8003332:	694b      	ldr	r3, [r1, #20]
 8003334:	019b      	lsls	r3, r3, #6
 8003336:	4323      	orrs	r3, r4
 8003338:	6043      	str	r3, [r0, #4]
 800333a:	684b      	ldr	r3, [r1, #4]
 800333c:	61c5      	str	r5, [r0, #28]
 800333e:	6403      	str	r3, [r0, #64]	@ 0x40
 8003340:	6202      	str	r2, [r0, #32]
 8003342:	bd30      	pop	{r4, r5, pc}
 8003344:	ffffefff 	.word	0xffffefff
 8003348:	feff8cff 	.word	0xfeff8cff
 800334c:	ffffdfff 	.word	0xffffdfff
 8003350:	40012c00 	.word	0x40012c00
 8003354:	40014400 	.word	0x40014400
 8003358:	40014800 	.word	0x40014800
 800335c:	ffffbfff 	.word	0xffffbfff

08003360 <TIM_OC5_SetConfig>:
 8003360:	b570      	push	{r4, r5, r6, lr}
 8003362:	6a06      	ldr	r6, [r0, #32]
 8003364:	4c10      	ldr	r4, [pc, #64]	@ (80033a8 <TIM_OC5_SetConfig+0x48>)
 8003366:	6a03      	ldr	r3, [r0, #32]
 8003368:	4a10      	ldr	r2, [pc, #64]	@ (80033ac <TIM_OC5_SetConfig+0x4c>)
 800336a:	4023      	ands	r3, r4
 800336c:	6203      	str	r3, [r0, #32]
 800336e:	6843      	ldr	r3, [r0, #4]
 8003370:	6d45      	ldr	r5, [r0, #84]	@ 0x54
 8003372:	4015      	ands	r5, r2
 8003374:	680a      	ldr	r2, [r1, #0]
 8003376:	4315      	orrs	r5, r2
 8003378:	4a0d      	ldr	r2, [pc, #52]	@ (80033b0 <TIM_OC5_SetConfig+0x50>)
 800337a:	4016      	ands	r6, r2
 800337c:	688a      	ldr	r2, [r1, #8]
 800337e:	0412      	lsls	r2, r2, #16
 8003380:	4332      	orrs	r2, r6
 8003382:	4e0c      	ldr	r6, [pc, #48]	@ (80033b4 <TIM_OC5_SetConfig+0x54>)
 8003384:	42b0      	cmp	r0, r6
 8003386:	d005      	beq.n	8003394 <TIM_OC5_SetConfig+0x34>
 8003388:	4e0b      	ldr	r6, [pc, #44]	@ (80033b8 <TIM_OC5_SetConfig+0x58>)
 800338a:	42b0      	cmp	r0, r6
 800338c:	d002      	beq.n	8003394 <TIM_OC5_SetConfig+0x34>
 800338e:	4e0b      	ldr	r6, [pc, #44]	@ (80033bc <TIM_OC5_SetConfig+0x5c>)
 8003390:	42b0      	cmp	r0, r6
 8003392:	d103      	bne.n	800339c <TIM_OC5_SetConfig+0x3c>
 8003394:	401c      	ands	r4, r3
 8003396:	694b      	ldr	r3, [r1, #20]
 8003398:	021b      	lsls	r3, r3, #8
 800339a:	4323      	orrs	r3, r4
 800339c:	6043      	str	r3, [r0, #4]
 800339e:	684b      	ldr	r3, [r1, #4]
 80033a0:	6545      	str	r5, [r0, #84]	@ 0x54
 80033a2:	6583      	str	r3, [r0, #88]	@ 0x58
 80033a4:	6202      	str	r2, [r0, #32]
 80033a6:	bd70      	pop	{r4, r5, r6, pc}
 80033a8:	fffeffff 	.word	0xfffeffff
 80033ac:	fffeff8f 	.word	0xfffeff8f
 80033b0:	fffdffff 	.word	0xfffdffff
 80033b4:	40012c00 	.word	0x40012c00
 80033b8:	40014400 	.word	0x40014400
 80033bc:	40014800 	.word	0x40014800

080033c0 <TIM_OC6_SetConfig>:
 80033c0:	b530      	push	{r4, r5, lr}
 80033c2:	4a12      	ldr	r2, [pc, #72]	@ (800340c <TIM_OC6_SetConfig+0x4c>)
 80033c4:	6a04      	ldr	r4, [r0, #32]
 80033c6:	6a03      	ldr	r3, [r0, #32]
 80033c8:	4d11      	ldr	r5, [pc, #68]	@ (8003410 <TIM_OC6_SetConfig+0x50>)
 80033ca:	4013      	ands	r3, r2
 80033cc:	6203      	str	r3, [r0, #32]
 80033ce:	6843      	ldr	r3, [r0, #4]
 80033d0:	6d42      	ldr	r2, [r0, #84]	@ 0x54
 80033d2:	402a      	ands	r2, r5
 80033d4:	680d      	ldr	r5, [r1, #0]
 80033d6:	022d      	lsls	r5, r5, #8
 80033d8:	4315      	orrs	r5, r2
 80033da:	4a0e      	ldr	r2, [pc, #56]	@ (8003414 <TIM_OC6_SetConfig+0x54>)
 80033dc:	4014      	ands	r4, r2
 80033de:	688a      	ldr	r2, [r1, #8]
 80033e0:	0512      	lsls	r2, r2, #20
 80033e2:	4322      	orrs	r2, r4
 80033e4:	4c0c      	ldr	r4, [pc, #48]	@ (8003418 <TIM_OC6_SetConfig+0x58>)
 80033e6:	42a0      	cmp	r0, r4
 80033e8:	d005      	beq.n	80033f6 <TIM_OC6_SetConfig+0x36>
 80033ea:	4c0c      	ldr	r4, [pc, #48]	@ (800341c <TIM_OC6_SetConfig+0x5c>)
 80033ec:	42a0      	cmp	r0, r4
 80033ee:	d002      	beq.n	80033f6 <TIM_OC6_SetConfig+0x36>
 80033f0:	4c0b      	ldr	r4, [pc, #44]	@ (8003420 <TIM_OC6_SetConfig+0x60>)
 80033f2:	42a0      	cmp	r0, r4
 80033f4:	d104      	bne.n	8003400 <TIM_OC6_SetConfig+0x40>
 80033f6:	4c0b      	ldr	r4, [pc, #44]	@ (8003424 <TIM_OC6_SetConfig+0x64>)
 80033f8:	401c      	ands	r4, r3
 80033fa:	694b      	ldr	r3, [r1, #20]
 80033fc:	029b      	lsls	r3, r3, #10
 80033fe:	4323      	orrs	r3, r4
 8003400:	6043      	str	r3, [r0, #4]
 8003402:	684b      	ldr	r3, [r1, #4]
 8003404:	6545      	str	r5, [r0, #84]	@ 0x54
 8003406:	65c3      	str	r3, [r0, #92]	@ 0x5c
 8003408:	6202      	str	r2, [r0, #32]
 800340a:	bd30      	pop	{r4, r5, pc}
 800340c:	ffefffff 	.word	0xffefffff
 8003410:	feff8fff 	.word	0xfeff8fff
 8003414:	ffdfffff 	.word	0xffdfffff
 8003418:	40012c00 	.word	0x40012c00
 800341c:	40014400 	.word	0x40014400
 8003420:	40014800 	.word	0x40014800
 8003424:	fffbffff 	.word	0xfffbffff

08003428 <HAL_TIM_PWM_MspInit>:
 8003428:	4770      	bx	lr
	...

0800342c <TIM_Base_SetConfig>:
 800342c:	b510      	push	{r4, lr}
 800342e:	4c1b      	ldr	r4, [pc, #108]	@ (800349c <TIM_Base_SetConfig+0x70>)
 8003430:	6803      	ldr	r3, [r0, #0]
 8003432:	42a0      	cmp	r0, r4
 8003434:	d00a      	beq.n	800344c <TIM_Base_SetConfig+0x20>
 8003436:	4a1a      	ldr	r2, [pc, #104]	@ (80034a0 <TIM_Base_SetConfig+0x74>)
 8003438:	4290      	cmp	r0, r2
 800343a:	d007      	beq.n	800344c <TIM_Base_SetConfig+0x20>
 800343c:	4a19      	ldr	r2, [pc, #100]	@ (80034a4 <TIM_Base_SetConfig+0x78>)
 800343e:	4290      	cmp	r0, r2
 8003440:	d109      	bne.n	8003456 <TIM_Base_SetConfig+0x2a>
 8003442:	4a19      	ldr	r2, [pc, #100]	@ (80034a8 <TIM_Base_SetConfig+0x7c>)
 8003444:	401a      	ands	r2, r3
 8003446:	68cb      	ldr	r3, [r1, #12]
 8003448:	4313      	orrs	r3, r2
 800344a:	e00a      	b.n	8003462 <TIM_Base_SetConfig+0x36>
 800344c:	2270      	movs	r2, #112	@ 0x70
 800344e:	4393      	bics	r3, r2
 8003450:	684a      	ldr	r2, [r1, #4]
 8003452:	4313      	orrs	r3, r2
 8003454:	e7f5      	b.n	8003442 <TIM_Base_SetConfig+0x16>
 8003456:	4a15      	ldr	r2, [pc, #84]	@ (80034ac <TIM_Base_SetConfig+0x80>)
 8003458:	4290      	cmp	r0, r2
 800345a:	d0f2      	beq.n	8003442 <TIM_Base_SetConfig+0x16>
 800345c:	4a14      	ldr	r2, [pc, #80]	@ (80034b0 <TIM_Base_SetConfig+0x84>)
 800345e:	4290      	cmp	r0, r2
 8003460:	d0ef      	beq.n	8003442 <TIM_Base_SetConfig+0x16>
 8003462:	2280      	movs	r2, #128	@ 0x80
 8003464:	4393      	bics	r3, r2
 8003466:	694a      	ldr	r2, [r1, #20]
 8003468:	4313      	orrs	r3, r2
 800346a:	6003      	str	r3, [r0, #0]
 800346c:	688b      	ldr	r3, [r1, #8]
 800346e:	62c3      	str	r3, [r0, #44]	@ 0x2c
 8003470:	680b      	ldr	r3, [r1, #0]
 8003472:	6283      	str	r3, [r0, #40]	@ 0x28
 8003474:	42a0      	cmp	r0, r4
 8003476:	d005      	beq.n	8003484 <TIM_Base_SetConfig+0x58>
 8003478:	4b0c      	ldr	r3, [pc, #48]	@ (80034ac <TIM_Base_SetConfig+0x80>)
 800347a:	4298      	cmp	r0, r3
 800347c:	d002      	beq.n	8003484 <TIM_Base_SetConfig+0x58>
 800347e:	4b0c      	ldr	r3, [pc, #48]	@ (80034b0 <TIM_Base_SetConfig+0x84>)
 8003480:	4298      	cmp	r0, r3
 8003482:	d101      	bne.n	8003488 <TIM_Base_SetConfig+0x5c>
 8003484:	690b      	ldr	r3, [r1, #16]
 8003486:	6303      	str	r3, [r0, #48]	@ 0x30
 8003488:	2201      	movs	r2, #1
 800348a:	6142      	str	r2, [r0, #20]
 800348c:	6903      	ldr	r3, [r0, #16]
 800348e:	4213      	tst	r3, r2
 8003490:	d002      	beq.n	8003498 <TIM_Base_SetConfig+0x6c>
 8003492:	6903      	ldr	r3, [r0, #16]
 8003494:	4393      	bics	r3, r2
 8003496:	6103      	str	r3, [r0, #16]
 8003498:	bd10      	pop	{r4, pc}
 800349a:	46c0      	nop			@ (mov r8, r8)
 800349c:	40012c00 	.word	0x40012c00
 80034a0:	40000400 	.word	0x40000400
 80034a4:	40002000 	.word	0x40002000
 80034a8:	fffffcff 	.word	0xfffffcff
 80034ac:	40014400 	.word	0x40014400
 80034b0:	40014800 	.word	0x40014800

080034b4 <HAL_TIM_Base_Init>:
 80034b4:	b570      	push	{r4, r5, r6, lr}
 80034b6:	0004      	movs	r4, r0
 80034b8:	2001      	movs	r0, #1
 80034ba:	2c00      	cmp	r4, #0
 80034bc:	d023      	beq.n	8003506 <HAL_TIM_Base_Init+0x52>
 80034be:	0025      	movs	r5, r4
 80034c0:	353d      	adds	r5, #61	@ 0x3d
 80034c2:	782b      	ldrb	r3, [r5, #0]
 80034c4:	b2da      	uxtb	r2, r3
 80034c6:	2b00      	cmp	r3, #0
 80034c8:	d105      	bne.n	80034d6 <HAL_TIM_Base_Init+0x22>
 80034ca:	0023      	movs	r3, r4
 80034cc:	333c      	adds	r3, #60	@ 0x3c
 80034ce:	0020      	movs	r0, r4
 80034d0:	701a      	strb	r2, [r3, #0]
 80034d2:	f7fe fd8d 	bl	8001ff0 <HAL_TIM_Base_MspInit>
 80034d6:	2302      	movs	r3, #2
 80034d8:	702b      	strb	r3, [r5, #0]
 80034da:	6820      	ldr	r0, [r4, #0]
 80034dc:	1d21      	adds	r1, r4, #4
 80034de:	f7ff ffa5 	bl	800342c <TIM_Base_SetConfig>
 80034e2:	0022      	movs	r2, r4
 80034e4:	2301      	movs	r3, #1
 80034e6:	2000      	movs	r0, #0
 80034e8:	3248      	adds	r2, #72	@ 0x48
 80034ea:	7013      	strb	r3, [r2, #0]
 80034ec:	3447      	adds	r4, #71	@ 0x47
 80034ee:	3a0a      	subs	r2, #10
 80034f0:	7013      	strb	r3, [r2, #0]
 80034f2:	7053      	strb	r3, [r2, #1]
 80034f4:	7093      	strb	r3, [r2, #2]
 80034f6:	70d3      	strb	r3, [r2, #3]
 80034f8:	7113      	strb	r3, [r2, #4]
 80034fa:	7153      	strb	r3, [r2, #5]
 80034fc:	7193      	strb	r3, [r2, #6]
 80034fe:	71d3      	strb	r3, [r2, #7]
 8003500:	7213      	strb	r3, [r2, #8]
 8003502:	7023      	strb	r3, [r4, #0]
 8003504:	702b      	strb	r3, [r5, #0]
 8003506:	bd70      	pop	{r4, r5, r6, pc}

08003508 <HAL_TIM_PWM_Init>:
 8003508:	b570      	push	{r4, r5, r6, lr}
 800350a:	0004      	movs	r4, r0
 800350c:	2001      	movs	r0, #1
 800350e:	2c00      	cmp	r4, #0
 8003510:	d023      	beq.n	800355a <HAL_TIM_PWM_Init+0x52>
 8003512:	0025      	movs	r5, r4
 8003514:	353d      	adds	r5, #61	@ 0x3d
 8003516:	782b      	ldrb	r3, [r5, #0]
 8003518:	b2da      	uxtb	r2, r3
 800351a:	2b00      	cmp	r3, #0
 800351c:	d105      	bne.n	800352a <HAL_TIM_PWM_Init+0x22>
 800351e:	0023      	movs	r3, r4
 8003520:	333c      	adds	r3, #60	@ 0x3c
 8003522:	0020      	movs	r0, r4
 8003524:	701a      	strb	r2, [r3, #0]
 8003526:	f7ff ff7f 	bl	8003428 <HAL_TIM_PWM_MspInit>
 800352a:	2302      	movs	r3, #2
 800352c:	702b      	strb	r3, [r5, #0]
 800352e:	6820      	ldr	r0, [r4, #0]
 8003530:	1d21      	adds	r1, r4, #4
 8003532:	f7ff ff7b 	bl	800342c <TIM_Base_SetConfig>
 8003536:	0022      	movs	r2, r4
 8003538:	2301      	movs	r3, #1
 800353a:	2000      	movs	r0, #0
 800353c:	3248      	adds	r2, #72	@ 0x48
 800353e:	7013      	strb	r3, [r2, #0]
 8003540:	3447      	adds	r4, #71	@ 0x47
 8003542:	3a0a      	subs	r2, #10
 8003544:	7013      	strb	r3, [r2, #0]
 8003546:	7053      	strb	r3, [r2, #1]
 8003548:	7093      	strb	r3, [r2, #2]
 800354a:	70d3      	strb	r3, [r2, #3]
 800354c:	7113      	strb	r3, [r2, #4]
 800354e:	7153      	strb	r3, [r2, #5]
 8003550:	7193      	strb	r3, [r2, #6]
 8003552:	71d3      	strb	r3, [r2, #7]
 8003554:	7213      	strb	r3, [r2, #8]
 8003556:	7023      	strb	r3, [r4, #0]
 8003558:	702b      	strb	r3, [r5, #0]
 800355a:	bd70      	pop	{r4, r5, r6, pc}

0800355c <TIM_OC2_SetConfig>:
 800355c:	2210      	movs	r2, #16
 800355e:	b570      	push	{r4, r5, r6, lr}
 8003560:	6a05      	ldr	r5, [r0, #32]
 8003562:	6a03      	ldr	r3, [r0, #32]
 8003564:	4c16      	ldr	r4, [pc, #88]	@ (80035c0 <TIM_OC2_SetConfig+0x64>)
 8003566:	4393      	bics	r3, r2
 8003568:	6203      	str	r3, [r0, #32]
 800356a:	6842      	ldr	r2, [r0, #4]
 800356c:	6983      	ldr	r3, [r0, #24]
 800356e:	4023      	ands	r3, r4
 8003570:	680c      	ldr	r4, [r1, #0]
 8003572:	0224      	lsls	r4, r4, #8
 8003574:	431c      	orrs	r4, r3
 8003576:	2320      	movs	r3, #32
 8003578:	439d      	bics	r5, r3
 800357a:	688b      	ldr	r3, [r1, #8]
 800357c:	011b      	lsls	r3, r3, #4
 800357e:	432b      	orrs	r3, r5
 8003580:	4d10      	ldr	r5, [pc, #64]	@ (80035c4 <TIM_OC2_SetConfig+0x68>)
 8003582:	42a8      	cmp	r0, r5
 8003584:	d10f      	bne.n	80035a6 <TIM_OC2_SetConfig+0x4a>
 8003586:	2580      	movs	r5, #128	@ 0x80
 8003588:	43ab      	bics	r3, r5
 800358a:	001e      	movs	r6, r3
 800358c:	68cb      	ldr	r3, [r1, #12]
 800358e:	3d40      	subs	r5, #64	@ 0x40
 8003590:	011b      	lsls	r3, r3, #4
 8003592:	4333      	orrs	r3, r6
 8003594:	43ab      	bics	r3, r5
 8003596:	4d0c      	ldr	r5, [pc, #48]	@ (80035c8 <TIM_OC2_SetConfig+0x6c>)
 8003598:	698e      	ldr	r6, [r1, #24]
 800359a:	4015      	ands	r5, r2
 800359c:	694a      	ldr	r2, [r1, #20]
 800359e:	4332      	orrs	r2, r6
 80035a0:	0092      	lsls	r2, r2, #2
 80035a2:	432a      	orrs	r2, r5
 80035a4:	e005      	b.n	80035b2 <TIM_OC2_SetConfig+0x56>
 80035a6:	4d09      	ldr	r5, [pc, #36]	@ (80035cc <TIM_OC2_SetConfig+0x70>)
 80035a8:	42a8      	cmp	r0, r5
 80035aa:	d0f4      	beq.n	8003596 <TIM_OC2_SetConfig+0x3a>
 80035ac:	4d08      	ldr	r5, [pc, #32]	@ (80035d0 <TIM_OC2_SetConfig+0x74>)
 80035ae:	42a8      	cmp	r0, r5
 80035b0:	d0f1      	beq.n	8003596 <TIM_OC2_SetConfig+0x3a>
 80035b2:	6042      	str	r2, [r0, #4]
 80035b4:	684a      	ldr	r2, [r1, #4]
 80035b6:	6184      	str	r4, [r0, #24]
 80035b8:	6382      	str	r2, [r0, #56]	@ 0x38
 80035ba:	6203      	str	r3, [r0, #32]
 80035bc:	bd70      	pop	{r4, r5, r6, pc}
 80035be:	46c0      	nop			@ (mov r8, r8)
 80035c0:	feff8cff 	.word	0xfeff8cff
 80035c4:	40012c00 	.word	0x40012c00
 80035c8:	fffff3ff 	.word	0xfffff3ff
 80035cc:	40014400 	.word	0x40014400
 80035d0:	40014800 	.word	0x40014800

080035d4 <HAL_TIM_PWM_ConfigChannel>:
 80035d4:	b5f8      	push	{r3, r4, r5, r6, r7, lr}
 80035d6:	0007      	movs	r7, r0
 80035d8:	373c      	adds	r7, #60	@ 0x3c
 80035da:	0015      	movs	r5, r2
 80035dc:	783a      	ldrb	r2, [r7, #0]
 80035de:	0003      	movs	r3, r0
 80035e0:	000c      	movs	r4, r1
 80035e2:	2002      	movs	r0, #2
 80035e4:	2a01      	cmp	r2, #1
 80035e6:	d00c      	beq.n	8003602 <HAL_TIM_PWM_ConfigChannel+0x2e>
 80035e8:	3801      	subs	r0, #1
 80035ea:	7038      	strb	r0, [r7, #0]
 80035ec:	2d0c      	cmp	r5, #12
 80035ee:	d051      	beq.n	8003694 <HAL_TIM_PWM_ConfigChannel+0xc0>
 80035f0:	d808      	bhi.n	8003604 <HAL_TIM_PWM_ConfigChannel+0x30>
 80035f2:	2d04      	cmp	r5, #4
 80035f4:	d02d      	beq.n	8003652 <HAL_TIM_PWM_ConfigChannel+0x7e>
 80035f6:	2d08      	cmp	r5, #8
 80035f8:	d03c      	beq.n	8003674 <HAL_TIM_PWM_ConfigChannel+0xa0>
 80035fa:	2d00      	cmp	r5, #0
 80035fc:	d017      	beq.n	800362e <HAL_TIM_PWM_ConfigChannel+0x5a>
 80035fe:	2300      	movs	r3, #0
 8003600:	703b      	strb	r3, [r7, #0]
 8003602:	bdf8      	pop	{r3, r4, r5, r6, r7, pc}
 8003604:	2d10      	cmp	r5, #16
 8003606:	d058      	beq.n	80036ba <HAL_TIM_PWM_ConfigChannel+0xe6>
 8003608:	2d14      	cmp	r5, #20
 800360a:	d1f8      	bne.n	80035fe <HAL_TIM_PWM_ConfigChannel+0x2a>
 800360c:	681d      	ldr	r5, [r3, #0]
 800360e:	0028      	movs	r0, r5
 8003610:	f7ff fed6 	bl	80033c0 <TIM_OC6_SetConfig>
 8003614:	2380      	movs	r3, #128	@ 0x80
 8003616:	6d6a      	ldr	r2, [r5, #84]	@ 0x54
 8003618:	011b      	lsls	r3, r3, #4
 800361a:	4313      	orrs	r3, r2
 800361c:	656b      	str	r3, [r5, #84]	@ 0x54
 800361e:	6d6b      	ldr	r3, [r5, #84]	@ 0x54
 8003620:	4a2e      	ldr	r2, [pc, #184]	@ (80036dc <HAL_TIM_PWM_ConfigChannel+0x108>)
 8003622:	4013      	ands	r3, r2
 8003624:	656b      	str	r3, [r5, #84]	@ 0x54
 8003626:	6923      	ldr	r3, [r4, #16]
 8003628:	6d6a      	ldr	r2, [r5, #84]	@ 0x54
 800362a:	021b      	lsls	r3, r3, #8
 800362c:	e053      	b.n	80036d6 <HAL_TIM_PWM_ConfigChannel+0x102>
 800362e:	681d      	ldr	r5, [r3, #0]
 8003630:	0028      	movs	r0, r5
 8003632:	f7ff fde9 	bl	8003208 <TIM_OC1_SetConfig>
 8003636:	2308      	movs	r3, #8
 8003638:	69aa      	ldr	r2, [r5, #24]
 800363a:	4313      	orrs	r3, r2
 800363c:	2204      	movs	r2, #4
 800363e:	61ab      	str	r3, [r5, #24]
 8003640:	69ab      	ldr	r3, [r5, #24]
 8003642:	4393      	bics	r3, r2
 8003644:	61ab      	str	r3, [r5, #24]
 8003646:	69ab      	ldr	r3, [r5, #24]
 8003648:	6922      	ldr	r2, [r4, #16]
 800364a:	4313      	orrs	r3, r2
 800364c:	61ab      	str	r3, [r5, #24]
 800364e:	2000      	movs	r0, #0
 8003650:	e7d5      	b.n	80035fe <HAL_TIM_PWM_ConfigChannel+0x2a>
 8003652:	681d      	ldr	r5, [r3, #0]
 8003654:	0028      	movs	r0, r5
 8003656:	f7ff ff81 	bl	800355c <TIM_OC2_SetConfig>
 800365a:	2380      	movs	r3, #128	@ 0x80
 800365c:	69aa      	ldr	r2, [r5, #24]
 800365e:	011b      	lsls	r3, r3, #4
 8003660:	4313      	orrs	r3, r2
 8003662:	61ab      	str	r3, [r5, #24]
 8003664:	69ab      	ldr	r3, [r5, #24]
 8003666:	4a1d      	ldr	r2, [pc, #116]	@ (80036dc <HAL_TIM_PWM_ConfigChannel+0x108>)
 8003668:	4013      	ands	r3, r2
 800366a:	61ab      	str	r3, [r5, #24]
 800366c:	6923      	ldr	r3, [r4, #16]
 800366e:	69aa      	ldr	r2, [r5, #24]
 8003670:	021b      	lsls	r3, r3, #8
 8003672:	e7ea      	b.n	800364a <HAL_TIM_PWM_ConfigChannel+0x76>
 8003674:	681e      	ldr	r6, [r3, #0]
 8003676:	0030      	movs	r0, r6
 8003678:	f7ff fdfc 	bl	8003274 <TIM_OC3_SetConfig>
 800367c:	2204      	movs	r2, #4
 800367e:	69f3      	ldr	r3, [r6, #28]
 8003680:	431d      	orrs	r5, r3
 8003682:	61f5      	str	r5, [r6, #28]
 8003684:	69f3      	ldr	r3, [r6, #28]
 8003686:	4393      	bics	r3, r2
 8003688:	61f3      	str	r3, [r6, #28]
 800368a:	69f3      	ldr	r3, [r6, #28]
 800368c:	6922      	ldr	r2, [r4, #16]
 800368e:	4313      	orrs	r3, r2
 8003690:	61f3      	str	r3, [r6, #28]
 8003692:	e7dc      	b.n	800364e <HAL_TIM_PWM_ConfigChannel+0x7a>
 8003694:	681d      	ldr	r5, [r3, #0]
 8003696:	0028      	movs	r0, r5
 8003698:	f7ff fe2e 	bl	80032f8 <TIM_OC4_SetConfig>
 800369c:	2380      	movs	r3, #128	@ 0x80
 800369e:	69ea      	ldr	r2, [r5, #28]
 80036a0:	011b      	lsls	r3, r3, #4
 80036a2:	4313      	orrs	r3, r2
 80036a4:	61eb      	str	r3, [r5, #28]
 80036a6:	69eb      	ldr	r3, [r5, #28]
 80036a8:	4a0c      	ldr	r2, [pc, #48]	@ (80036dc <HAL_TIM_PWM_ConfigChannel+0x108>)
 80036aa:	4013      	ands	r3, r2
 80036ac:	61eb      	str	r3, [r5, #28]
 80036ae:	6923      	ldr	r3, [r4, #16]
 80036b0:	69ea      	ldr	r2, [r5, #28]
 80036b2:	021b      	lsls	r3, r3, #8
 80036b4:	4313      	orrs	r3, r2
 80036b6:	61eb      	str	r3, [r5, #28]
 80036b8:	e7c9      	b.n	800364e <HAL_TIM_PWM_ConfigChannel+0x7a>
 80036ba:	681d      	ldr	r5, [r3, #0]
 80036bc:	0028      	movs	r0, r5
 80036be:	f7ff fe4f 	bl	8003360 <TIM_OC5_SetConfig>
 80036c2:	2308      	movs	r3, #8
 80036c4:	6d6a      	ldr	r2, [r5, #84]	@ 0x54
 80036c6:	4313      	orrs	r3, r2
 80036c8:	2204      	movs	r2, #4
 80036ca:	656b      	str	r3, [r5, #84]	@ 0x54
 80036cc:	6d6b      	ldr	r3, [r5, #84]	@ 0x54
 80036ce:	4393      	bics	r3, r2
 80036d0:	656b      	str	r3, [r5, #84]	@ 0x54
 80036d2:	6d6b      	ldr	r3, [r5, #84]	@ 0x54
 80036d4:	6922      	ldr	r2, [r4, #16]
 80036d6:	4313      	orrs	r3, r2
 80036d8:	656b      	str	r3, [r5, #84]	@ 0x54
 80036da:	e7b8      	b.n	800364e <HAL_TIM_PWM_ConfigChannel+0x7a>
 80036dc:	fffffbff 	.word	0xfffffbff

080036e0 <TIM_ETR_SetConfig>:
 80036e0:	b530      	push	{r4, r5, lr}
 80036e2:	6884      	ldr	r4, [r0, #8]
 80036e4:	4d03      	ldr	r5, [pc, #12]	@ (80036f4 <TIM_ETR_SetConfig+0x14>)
 80036e6:	430a      	orrs	r2, r1
 80036e8:	021b      	lsls	r3, r3, #8
 80036ea:	402c      	ands	r4, r5
 80036ec:	4313      	orrs	r3, r2
 80036ee:	4323      	orrs	r3, r4
 80036f0:	6083      	str	r3, [r0, #8]
 80036f2:	bd30      	pop	{r4, r5, pc}
 80036f4:	ffff00ff 	.word	0xffff00ff

080036f8 <HAL_TIM_ConfigClockSource>:
 80036f8:	b5f8      	push	{r3, r4, r5, r6, r7, lr}
 80036fa:	0005      	movs	r5, r0
 80036fc:	2202      	movs	r2, #2
 80036fe:	353c      	adds	r5, #60	@ 0x3c
 8003700:	782c      	ldrb	r4, [r5, #0]
 8003702:	0003      	movs	r3, r0
 8003704:	0010      	movs	r0, r2
 8003706:	2c01      	cmp	r4, #1
 8003708:	d01b      	beq.n	8003742 <HAL_TIM_ConfigClockSource+0x4a>
 800370a:	001e      	movs	r6, r3
 800370c:	3801      	subs	r0, #1
 800370e:	363d      	adds	r6, #61	@ 0x3d
 8003710:	7028      	strb	r0, [r5, #0]
 8003712:	7032      	strb	r2, [r6, #0]
 8003714:	681c      	ldr	r4, [r3, #0]
 8003716:	4a41      	ldr	r2, [pc, #260]	@ (800381c <HAL_TIM_ConfigClockSource+0x124>)
 8003718:	68a3      	ldr	r3, [r4, #8]
 800371a:	4013      	ands	r3, r2
 800371c:	60a3      	str	r3, [r4, #8]
 800371e:	680b      	ldr	r3, [r1, #0]
 8003720:	2b60      	cmp	r3, #96	@ 0x60
 8003722:	d04e      	beq.n	80037c2 <HAL_TIM_ConfigClockSource+0xca>
 8003724:	d82d      	bhi.n	8003782 <HAL_TIM_ConfigClockSource+0x8a>
 8003726:	2b40      	cmp	r3, #64	@ 0x40
 8003728:	d062      	beq.n	80037f0 <HAL_TIM_ConfigClockSource+0xf8>
 800372a:	d813      	bhi.n	8003754 <HAL_TIM_ConfigClockSource+0x5c>
 800372c:	2b20      	cmp	r3, #32
 800372e:	d00b      	beq.n	8003748 <HAL_TIM_ConfigClockSource+0x50>
 8003730:	d808      	bhi.n	8003744 <HAL_TIM_ConfigClockSource+0x4c>
 8003732:	2210      	movs	r2, #16
 8003734:	0019      	movs	r1, r3
 8003736:	4391      	bics	r1, r2
 8003738:	d006      	beq.n	8003748 <HAL_TIM_ConfigClockSource+0x50>
 800373a:	2301      	movs	r3, #1
 800373c:	7033      	strb	r3, [r6, #0]
 800373e:	2300      	movs	r3, #0
 8003740:	702b      	strb	r3, [r5, #0]
 8003742:	bdf8      	pop	{r3, r4, r5, r6, r7, pc}
 8003744:	2b30      	cmp	r3, #48	@ 0x30
 8003746:	d1f8      	bne.n	800373a <HAL_TIM_ConfigClockSource+0x42>
 8003748:	68a2      	ldr	r2, [r4, #8]
 800374a:	4935      	ldr	r1, [pc, #212]	@ (8003820 <HAL_TIM_ConfigClockSource+0x128>)
 800374c:	400a      	ands	r2, r1
 800374e:	4313      	orrs	r3, r2
 8003750:	2207      	movs	r2, #7
 8003752:	e028      	b.n	80037a6 <HAL_TIM_ConfigClockSource+0xae>
 8003754:	2b50      	cmp	r3, #80	@ 0x50
 8003756:	d1f0      	bne.n	800373a <HAL_TIM_ConfigClockSource+0x42>
 8003758:	684a      	ldr	r2, [r1, #4]
 800375a:	68cb      	ldr	r3, [r1, #12]
 800375c:	6a21      	ldr	r1, [r4, #32]
 800375e:	6a27      	ldr	r7, [r4, #32]
 8003760:	011b      	lsls	r3, r3, #4
 8003762:	4387      	bics	r7, r0
 8003764:	6227      	str	r7, [r4, #32]
 8003766:	27f0      	movs	r7, #240	@ 0xf0
 8003768:	69a0      	ldr	r0, [r4, #24]
 800376a:	43b8      	bics	r0, r7
 800376c:	4303      	orrs	r3, r0
 800376e:	200a      	movs	r0, #10
 8003770:	4381      	bics	r1, r0
 8003772:	430a      	orrs	r2, r1
 8003774:	61a3      	str	r3, [r4, #24]
 8003776:	6222      	str	r2, [r4, #32]
 8003778:	4b29      	ldr	r3, [pc, #164]	@ (8003820 <HAL_TIM_ConfigClockSource+0x128>)
 800377a:	68a2      	ldr	r2, [r4, #8]
 800377c:	401a      	ands	r2, r3
 800377e:	2357      	movs	r3, #87	@ 0x57
 8003780:	e011      	b.n	80037a6 <HAL_TIM_ConfigClockSource+0xae>
 8003782:	2280      	movs	r2, #128	@ 0x80
 8003784:	0152      	lsls	r2, r2, #5
 8003786:	4293      	cmp	r3, r2
 8003788:	d00f      	beq.n	80037aa <HAL_TIM_ConfigClockSource+0xb2>
 800378a:	2280      	movs	r2, #128	@ 0x80
 800378c:	0192      	lsls	r2, r2, #6
 800378e:	4293      	cmp	r3, r2
 8003790:	d00d      	beq.n	80037ae <HAL_TIM_ConfigClockSource+0xb6>
 8003792:	2b70      	cmp	r3, #112	@ 0x70
 8003794:	d1d1      	bne.n	800373a <HAL_TIM_ConfigClockSource+0x42>
 8003796:	68cb      	ldr	r3, [r1, #12]
 8003798:	684a      	ldr	r2, [r1, #4]
 800379a:	0020      	movs	r0, r4
 800379c:	6889      	ldr	r1, [r1, #8]
 800379e:	f7ff ff9f 	bl	80036e0 <TIM_ETR_SetConfig>
 80037a2:	2377      	movs	r3, #119	@ 0x77
 80037a4:	68a2      	ldr	r2, [r4, #8]
 80037a6:	4313      	orrs	r3, r2
 80037a8:	60a3      	str	r3, [r4, #8]
 80037aa:	2000      	movs	r0, #0
 80037ac:	e7c5      	b.n	800373a <HAL_TIM_ConfigClockSource+0x42>
 80037ae:	68cb      	ldr	r3, [r1, #12]
 80037b0:	684a      	ldr	r2, [r1, #4]
 80037b2:	0020      	movs	r0, r4
 80037b4:	6889      	ldr	r1, [r1, #8]
 80037b6:	f7ff ff93 	bl	80036e0 <TIM_ETR_SetConfig>
 80037ba:	2380      	movs	r3, #128	@ 0x80
 80037bc:	68a2      	ldr	r2, [r4, #8]
 80037be:	01db      	lsls	r3, r3, #7
 80037c0:	e7f1      	b.n	80037a6 <HAL_TIM_ConfigClockSource+0xae>
 80037c2:	2710      	movs	r7, #16
 80037c4:	684b      	ldr	r3, [r1, #4]
 80037c6:	68ca      	ldr	r2, [r1, #12]
 80037c8:	6a21      	ldr	r1, [r4, #32]
 80037ca:	6a20      	ldr	r0, [r4, #32]
 80037cc:	0312      	lsls	r2, r2, #12
 80037ce:	43b8      	bics	r0, r7
 80037d0:	6220      	str	r0, [r4, #32]
 80037d2:	69a0      	ldr	r0, [r4, #24]
 80037d4:	4f13      	ldr	r7, [pc, #76]	@ (8003824 <HAL_TIM_ConfigClockSource+0x12c>)
 80037d6:	011b      	lsls	r3, r3, #4
 80037d8:	4038      	ands	r0, r7
 80037da:	4302      	orrs	r2, r0
 80037dc:	20a0      	movs	r0, #160	@ 0xa0
 80037de:	4381      	bics	r1, r0
 80037e0:	430b      	orrs	r3, r1
 80037e2:	61a2      	str	r2, [r4, #24]
 80037e4:	6223      	str	r3, [r4, #32]
 80037e6:	68a2      	ldr	r2, [r4, #8]
 80037e8:	4b0d      	ldr	r3, [pc, #52]	@ (8003820 <HAL_TIM_ConfigClockSource+0x128>)
 80037ea:	401a      	ands	r2, r3
 80037ec:	2367      	movs	r3, #103	@ 0x67
 80037ee:	e7da      	b.n	80037a6 <HAL_TIM_ConfigClockSource+0xae>
 80037f0:	684a      	ldr	r2, [r1, #4]
 80037f2:	68cb      	ldr	r3, [r1, #12]
 80037f4:	6a21      	ldr	r1, [r4, #32]
 80037f6:	6a27      	ldr	r7, [r4, #32]
 80037f8:	011b      	lsls	r3, r3, #4
 80037fa:	4387      	bics	r7, r0
 80037fc:	6227      	str	r7, [r4, #32]
 80037fe:	27f0      	movs	r7, #240	@ 0xf0
 8003800:	69a0      	ldr	r0, [r4, #24]
 8003802:	43b8      	bics	r0, r7
 8003804:	4303      	orrs	r3, r0
 8003806:	200a      	movs	r0, #10
 8003808:	4381      	bics	r1, r0
 800380a:	430a      	orrs	r2, r1
 800380c:	61a3      	str	r3, [r4, #24]
 800380e:	6222      	str	r2, [r4, #32]
 8003810:	4b03      	ldr	r3, [pc, #12]	@ (8003820 <HAL_TIM_ConfigClockSource+0x128>)
 8003812:	68a2      	ldr	r2, [r4, #8]
 8003814:	401a      	ands	r2, r3
 8003816:	2347      	movs	r3, #71	@ 0x47
 8003818:	e7c5      	b.n	80037a6 <HAL_TIM_ConfigClockSource+0xae>
 800381a:	46c0      	nop			@ (mov r8, r8)
 800381c:	ffce0088 	.word	0xffce0088
 8003820:	ffcfff8f 	.word	0xffcfff8f
 8003824:	ffff0fff 	.word	0xffff0fff

08003828 <TIM_CCxChannelCmd>:
 8003828:	231f      	movs	r3, #31
 800382a:	b510      	push	{r4, lr}
 800382c:	2401      	movs	r4, #1
 800382e:	4019      	ands	r1, r3
 8003830:	408c      	lsls	r4, r1
 8003832:	408a      	lsls	r2, r1
 8003834:	6a03      	ldr	r3, [r0, #32]
 8003836:	43a3      	bics	r3, r4
 8003838:	6203      	str	r3, [r0, #32]
 800383a:	6a03      	ldr	r3, [r0, #32]
 800383c:	431a      	orrs	r2, r3
 800383e:	6202      	str	r2, [r0, #32]
 8003840:	bd10      	pop	{r4, pc}
	...

08003844 <HAL_TIM_OC_Start>:
 8003844:	0002      	movs	r2, r0
 8003846:	b510      	push	{r4, lr}
 8003848:	2908      	cmp	r1, #8
 800384a:	d01c      	beq.n	8003886 <HAL_TIM_OC_Start+0x42>
 800384c:	d806      	bhi.n	800385c <HAL_TIM_OC_Start+0x18>
 800384e:	2900      	cmp	r1, #0
 8003850:	d00b      	beq.n	800386a <HAL_TIM_OC_Start+0x26>
 8003852:	2904      	cmp	r1, #4
 8003854:	d014      	beq.n	8003880 <HAL_TIM_OC_Start+0x3c>
 8003856:	0013      	movs	r3, r2
 8003858:	3343      	adds	r3, #67	@ 0x43
 800385a:	e008      	b.n	800386e <HAL_TIM_OC_Start+0x2a>
 800385c:	290c      	cmp	r1, #12
 800385e:	d015      	beq.n	800388c <HAL_TIM_OC_Start+0x48>
 8003860:	2910      	cmp	r1, #16
 8003862:	d1f8      	bne.n	8003856 <HAL_TIM_OC_Start+0x12>
 8003864:	0003      	movs	r3, r0
 8003866:	3342      	adds	r3, #66	@ 0x42
 8003868:	e001      	b.n	800386e <HAL_TIM_OC_Start+0x2a>
 800386a:	0003      	movs	r3, r0
 800386c:	333e      	adds	r3, #62	@ 0x3e
 800386e:	781b      	ldrb	r3, [r3, #0]
 8003870:	3b01      	subs	r3, #1
 8003872:	1e58      	subs	r0, r3, #1
 8003874:	4183      	sbcs	r3, r0
 8003876:	b2db      	uxtb	r3, r3
 8003878:	2001      	movs	r0, #1
 800387a:	2b00      	cmp	r3, #0
 800387c:	d009      	beq.n	8003892 <HAL_TIM_OC_Start+0x4e>
 800387e:	bd10      	pop	{r4, pc}
 8003880:	0003      	movs	r3, r0
 8003882:	333f      	adds	r3, #63	@ 0x3f
 8003884:	e7f3      	b.n	800386e <HAL_TIM_OC_Start+0x2a>
 8003886:	0003      	movs	r3, r0
 8003888:	3340      	adds	r3, #64	@ 0x40
 800388a:	e7f0      	b.n	800386e <HAL_TIM_OC_Start+0x2a>
 800388c:	0003      	movs	r3, r0
 800388e:	3341      	adds	r3, #65	@ 0x41
 8003890:	e7ed      	b.n	800386e <HAL_TIM_OC_Start+0x2a>
 8003892:	2302      	movs	r3, #2
 8003894:	2908      	cmp	r1, #8
 8003896:	d030      	beq.n	80038fa <HAL_TIM_OC_Start+0xb6>
 8003898:	d806      	bhi.n	80038a8 <HAL_TIM_OC_Start+0x64>
 800389a:	2900      	cmp	r1, #0
 800389c:	d00b      	beq.n	80038b6 <HAL_TIM_OC_Start+0x72>
 800389e:	2904      	cmp	r1, #4
 80038a0:	d028      	beq.n	80038f4 <HAL_TIM_OC_Start+0xb0>
 80038a2:	0010      	movs	r0, r2
 80038a4:	3043      	adds	r0, #67	@ 0x43
 80038a6:	e008      	b.n	80038ba <HAL_TIM_OC_Start+0x76>
 80038a8:	290c      	cmp	r1, #12
 80038aa:	d029      	beq.n	8003900 <HAL_TIM_OC_Start+0xbc>
 80038ac:	2910      	cmp	r1, #16
 80038ae:	d1f8      	bne.n	80038a2 <HAL_TIM_OC_Start+0x5e>
 80038b0:	0010      	movs	r0, r2
 80038b2:	3042      	adds	r0, #66	@ 0x42
 80038b4:	e001      	b.n	80038ba <HAL_TIM_OC_Start+0x76>
 80038b6:	0010      	movs	r0, r2
 80038b8:	303e      	adds	r0, #62	@ 0x3e
 80038ba:	7003      	strb	r3, [r0, #0]
 80038bc:	6814      	ldr	r4, [r2, #0]
 80038be:	2201      	movs	r2, #1
 80038c0:	0020      	movs	r0, r4
 80038c2:	f7ff ffb1 	bl	8003828 <TIM_CCxChannelCmd>
 80038c6:	4a16      	ldr	r2, [pc, #88]	@ (8003920 <HAL_TIM_OC_Start+0xdc>)
 80038c8:	4294      	cmp	r4, r2
 80038ca:	d005      	beq.n	80038d8 <HAL_TIM_OC_Start+0x94>
 80038cc:	4b15      	ldr	r3, [pc, #84]	@ (8003924 <HAL_TIM_OC_Start+0xe0>)
 80038ce:	429c      	cmp	r4, r3
 80038d0:	d002      	beq.n	80038d8 <HAL_TIM_OC_Start+0x94>
 80038d2:	4b15      	ldr	r3, [pc, #84]	@ (8003928 <HAL_TIM_OC_Start+0xe4>)
 80038d4:	429c      	cmp	r4, r3
 80038d6:	d116      	bne.n	8003906 <HAL_TIM_OC_Start+0xc2>
 80038d8:	2380      	movs	r3, #128	@ 0x80
 80038da:	6c61      	ldr	r1, [r4, #68]	@ 0x44
 80038dc:	021b      	lsls	r3, r3, #8
 80038de:	430b      	orrs	r3, r1
 80038e0:	6463      	str	r3, [r4, #68]	@ 0x44
 80038e2:	4294      	cmp	r4, r2
 80038e4:	d112      	bne.n	800390c <HAL_TIM_OC_Start+0xc8>
 80038e6:	68a3      	ldr	r3, [r4, #8]
 80038e8:	4a10      	ldr	r2, [pc, #64]	@ (800392c <HAL_TIM_OC_Start+0xe8>)
 80038ea:	4013      	ands	r3, r2
 80038ec:	2b06      	cmp	r3, #6
 80038ee:	d112      	bne.n	8003916 <HAL_TIM_OC_Start+0xd2>
 80038f0:	2000      	movs	r0, #0
 80038f2:	e7c4      	b.n	800387e <HAL_TIM_OC_Start+0x3a>
 80038f4:	0010      	movs	r0, r2
 80038f6:	303f      	adds	r0, #63	@ 0x3f
 80038f8:	e7df      	b.n	80038ba <HAL_TIM_OC_Start+0x76>
 80038fa:	0010      	movs	r0, r2
 80038fc:	3040      	adds	r0, #64	@ 0x40
 80038fe:	e7dc      	b.n	80038ba <HAL_TIM_OC_Start+0x76>
 8003900:	0010      	movs	r0, r2
 8003902:	3041      	adds	r0, #65	@ 0x41
 8003904:	e7d9      	b.n	80038ba <HAL_TIM_OC_Start+0x76>
 8003906:	4b0a      	ldr	r3, [pc, #40]	@ (8003930 <HAL_TIM_OC_Start+0xec>)
 8003908:	429c      	cmp	r4, r3
 800390a:	d0ec      	beq.n	80038e6 <HAL_TIM_OC_Start+0xa2>
 800390c:	2301      	movs	r3, #1
 800390e:	6822      	ldr	r2, [r4, #0]
 8003910:	4313      	orrs	r3, r2
 8003912:	6023      	str	r3, [r4, #0]
 8003914:	e7ec      	b.n	80038f0 <HAL_TIM_OC_Start+0xac>
 8003916:	2280      	movs	r2, #128	@ 0x80
 8003918:	0252      	lsls	r2, r2, #9
 800391a:	4293      	cmp	r3, r2
 800391c:	d1f6      	bne.n	800390c <HAL_TIM_OC_Start+0xc8>
 800391e:	e7e7      	b.n	80038f0 <HAL_TIM_OC_Start+0xac>
 8003920:	40012c00 	.word	0x40012c00
 8003924:	40014400 	.word	0x40014400
 8003928:	40014800 	.word	0x40014800
 800392c:	00010007 	.word	0x00010007
 8003930:	40000400 	.word	0x40000400

08003934 <HAL_TIM_PWM_Start>:
 8003934:	b510      	push	{r4, lr}
 8003936:	f7ff ff85 	bl	8003844 <HAL_TIM_OC_Start>
 800393a:	bd10      	pop	{r4, pc}

0800393c <HAL_TIM_OC_Stop>:
 800393c:	b570      	push	{r4, r5, r6, lr}
 800393e:	6805      	ldr	r5, [r0, #0]
 8003940:	2200      	movs	r2, #0
 8003942:	0004      	movs	r4, r0
 8003944:	0028      	movs	r0, r5
 8003946:	000e      	movs	r6, r1
 8003948:	f7ff ff6e 	bl	8003828 <TIM_CCxChannelCmd>
 800394c:	4b1c      	ldr	r3, [pc, #112]	@ (80039c0 <HAL_TIM_OC_Stop+0x84>)
 800394e:	4a1d      	ldr	r2, [pc, #116]	@ (80039c4 <HAL_TIM_OC_Stop+0x88>)
 8003950:	429d      	cmp	r5, r3
 8003952:	d005      	beq.n	8003960 <HAL_TIM_OC_Stop+0x24>
 8003954:	4b1c      	ldr	r3, [pc, #112]	@ (80039c8 <HAL_TIM_OC_Stop+0x8c>)
 8003956:	429d      	cmp	r5, r3
 8003958:	d002      	beq.n	8003960 <HAL_TIM_OC_Stop+0x24>
 800395a:	4b1c      	ldr	r3, [pc, #112]	@ (80039cc <HAL_TIM_OC_Stop+0x90>)
 800395c:	429d      	cmp	r5, r3
 800395e:	d10a      	bne.n	8003976 <HAL_TIM_OC_Stop+0x3a>
 8003960:	6a2b      	ldr	r3, [r5, #32]
 8003962:	4213      	tst	r3, r2
 8003964:	d107      	bne.n	8003976 <HAL_TIM_OC_Stop+0x3a>
 8003966:	6a29      	ldr	r1, [r5, #32]
 8003968:	4b19      	ldr	r3, [pc, #100]	@ (80039d0 <HAL_TIM_OC_Stop+0x94>)
 800396a:	4219      	tst	r1, r3
 800396c:	d103      	bne.n	8003976 <HAL_TIM_OC_Stop+0x3a>
 800396e:	6c6b      	ldr	r3, [r5, #68]	@ 0x44
 8003970:	4918      	ldr	r1, [pc, #96]	@ (80039d4 <HAL_TIM_OC_Stop+0x98>)
 8003972:	400b      	ands	r3, r1
 8003974:	646b      	str	r3, [r5, #68]	@ 0x44
 8003976:	6a2b      	ldr	r3, [r5, #32]
 8003978:	4213      	tst	r3, r2
 800397a:	d107      	bne.n	800398c <HAL_TIM_OC_Stop+0x50>
 800397c:	6a2a      	ldr	r2, [r5, #32]
 800397e:	4b14      	ldr	r3, [pc, #80]	@ (80039d0 <HAL_TIM_OC_Stop+0x94>)
 8003980:	421a      	tst	r2, r3
 8003982:	d103      	bne.n	800398c <HAL_TIM_OC_Stop+0x50>
 8003984:	2201      	movs	r2, #1
 8003986:	682b      	ldr	r3, [r5, #0]
 8003988:	4393      	bics	r3, r2
 800398a:	602b      	str	r3, [r5, #0]
 800398c:	2301      	movs	r3, #1
 800398e:	2e08      	cmp	r6, #8
 8003990:	d012      	beq.n	80039b8 <HAL_TIM_OC_Stop+0x7c>
 8003992:	d805      	bhi.n	80039a0 <HAL_TIM_OC_Stop+0x64>
 8003994:	2e00      	cmp	r6, #0
 8003996:	d009      	beq.n	80039ac <HAL_TIM_OC_Stop+0x70>
 8003998:	2e04      	cmp	r6, #4
 800399a:	d00b      	beq.n	80039b4 <HAL_TIM_OC_Stop+0x78>
 800399c:	3443      	adds	r4, #67	@ 0x43
 800399e:	e006      	b.n	80039ae <HAL_TIM_OC_Stop+0x72>
 80039a0:	2e0c      	cmp	r6, #12
 80039a2:	d00b      	beq.n	80039bc <HAL_TIM_OC_Stop+0x80>
 80039a4:	2e10      	cmp	r6, #16
 80039a6:	d1f9      	bne.n	800399c <HAL_TIM_OC_Stop+0x60>
 80039a8:	3442      	adds	r4, #66	@ 0x42
 80039aa:	e000      	b.n	80039ae <HAL_TIM_OC_Stop+0x72>
 80039ac:	343e      	adds	r4, #62	@ 0x3e
 80039ae:	2000      	movs	r0, #0
 80039b0:	7023      	strb	r3, [r4, #0]
 80039b2:	bd70      	pop	{r4, r5, r6, pc}
 80039b4:	343f      	adds	r4, #63	@ 0x3f
 80039b6:	e7fa      	b.n	80039ae <HAL_TIM_OC_Stop+0x72>
 80039b8:	3440      	adds	r4, #64	@ 0x40
 80039ba:	e7f8      	b.n	80039ae <HAL_TIM_OC_Stop+0x72>
 80039bc:	3441      	adds	r4, #65	@ 0x41
 80039be:	e7f6      	b.n	80039ae <HAL_TIM_OC_Stop+0x72>
 80039c0:	40012c00 	.word	0x40012c00
 80039c4:	00001111 	.word	0x00001111
 80039c8:	40014400 	.word	0x40014400
 80039cc:	40014800 	.word	0x40014800
 80039d0:	00000444 	.word	0x00000444
 80039d4:	ffff7fff 	.word	0xffff7fff

080039d8 <HAL_TIM_PWM_Stop>:
 80039d8:	b510      	push	{r4, lr}
 80039da:	f7ff ffaf 	bl	800393c <HAL_TIM_OC_Stop>
 80039de:	bd10      	pop	{r4, pc}

080039e0 <HAL_TIMEx_MasterConfigSynchronization>:
 80039e0:	b5f0      	push	{r4, r5, r6, r7, lr}
 80039e2:	0004      	movs	r4, r0
 80039e4:	2202      	movs	r2, #2
 80039e6:	343c      	adds	r4, #60	@ 0x3c
 80039e8:	7825      	ldrb	r5, [r4, #0]
 80039ea:	0003      	movs	r3, r0
 80039ec:	0010      	movs	r0, r2
 80039ee:	2d01      	cmp	r5, #1
 80039f0:	d01f      	beq.n	8003a32 <HAL_TIMEx_MasterConfigSynchronization+0x52>
 80039f2:	001d      	movs	r5, r3
 80039f4:	353d      	adds	r5, #61	@ 0x3d
 80039f6:	702a      	strb	r2, [r5, #0]
 80039f8:	681a      	ldr	r2, [r3, #0]
 80039fa:	4e0e      	ldr	r6, [pc, #56]	@ (8003a34 <HAL_TIMEx_MasterConfigSynchronization+0x54>)
 80039fc:	6853      	ldr	r3, [r2, #4]
 80039fe:	6890      	ldr	r0, [r2, #8]
 8003a00:	42b2      	cmp	r2, r6
 8003a02:	d103      	bne.n	8003a0c <HAL_TIMEx_MasterConfigSynchronization+0x2c>
 8003a04:	4f0c      	ldr	r7, [pc, #48]	@ (8003a38 <HAL_TIMEx_MasterConfigSynchronization+0x58>)
 8003a06:	403b      	ands	r3, r7
 8003a08:	684f      	ldr	r7, [r1, #4]
 8003a0a:	433b      	orrs	r3, r7
 8003a0c:	2770      	movs	r7, #112	@ 0x70
 8003a0e:	43bb      	bics	r3, r7
 8003a10:	680f      	ldr	r7, [r1, #0]
 8003a12:	433b      	orrs	r3, r7
 8003a14:	6053      	str	r3, [r2, #4]
 8003a16:	42b2      	cmp	r2, r6
 8003a18:	d002      	beq.n	8003a20 <HAL_TIMEx_MasterConfigSynchronization+0x40>
 8003a1a:	4b08      	ldr	r3, [pc, #32]	@ (8003a3c <HAL_TIMEx_MasterConfigSynchronization+0x5c>)
 8003a1c:	429a      	cmp	r2, r3
 8003a1e:	d104      	bne.n	8003a2a <HAL_TIMEx_MasterConfigSynchronization+0x4a>
 8003a20:	2380      	movs	r3, #128	@ 0x80
 8003a22:	4398      	bics	r0, r3
 8003a24:	688b      	ldr	r3, [r1, #8]
 8003a26:	4318      	orrs	r0, r3
 8003a28:	6090      	str	r0, [r2, #8]
 8003a2a:	2301      	movs	r3, #1
 8003a2c:	2000      	movs	r0, #0
 8003a2e:	702b      	strb	r3, [r5, #0]
 8003a30:	7020      	strb	r0, [r4, #0]
 8003a32:	bdf0      	pop	{r4, r5, r6, r7, pc}
 8003a34:	40012c00 	.word	0x40012c00
 8003a38:	ff0fffff 	.word	0xff0fffff
 8003a3c:	40000400 	.word	0x40000400

08003a40 <memset>:
 8003a40:	0003      	movs	r3, r0
 8003a42:	1882      	adds	r2, r0, r2
 8003a44:	4293      	cmp	r3, r2
 8003a46:	d100      	bne.n	8003a4a <memset+0xa>
 8003a48:	4770      	bx	lr
 8003a4a:	7019      	strb	r1, [r3, #0]
 8003a4c:	3301      	adds	r3, #1
 8003a4e:	e7f9      	b.n	8003a44 <memset+0x4>

08003a50 <__errno>:
 8003a50:	4b01      	ldr	r3, [pc, #4]	@ (8003a58 <__errno+0x8>)
 8003a52:	6818      	ldr	r0, [r3, #0]
 8003a54:	4770      	bx	lr
 8003a56:	46c0      	nop			@ (mov r8, r8)
 8003a58:	2000000c 	.word	0x2000000c

08003a5c <__libc_init_array>:
 8003a5c:	b570      	push	{r4, r5, r6, lr}
 8003a5e:	2600      	movs	r6, #0
 8003a60:	4c0c      	ldr	r4, [pc, #48]	@ (8003a94 <__libc_init_array+0x38>)
 8003a62:	4d0d      	ldr	r5, [pc, #52]	@ (8003a98 <__libc_init_array+0x3c>)
 8003a64:	1b64      	subs	r4, r4, r5
 8003a66:	10a4      	asrs	r4, r4, #2
 8003a68:	42a6      	cmp	r6, r4
 8003a6a:	d109      	bne.n	8003a80 <__libc_init_array+0x24>
 8003a6c:	2600      	movs	r6, #0
 8003a6e:	f000 fccf 	bl	8004410 <_init>
 8003a72:	4c0a      	ldr	r4, [pc, #40]	@ (8003a9c <__libc_init_array+0x40>)
 8003a74:	4d0a      	ldr	r5, [pc, #40]	@ (8003aa0 <__libc_init_array+0x44>)
 8003a76:	1b64      	subs	r4, r4, r5
 8003a78:	10a4      	asrs	r4, r4, #2
 8003a7a:	42a6      	cmp	r6, r4
 8003a7c:	d105      	bne.n	8003a8a <__libc_init_array+0x2e>
 8003a7e:	bd70      	pop	{r4, r5, r6, pc}
 8003a80:	00b3      	lsls	r3, r6, #2
 8003a82:	58eb      	ldr	r3, [r5, r3]
 8003a84:	4798      	blx	r3
 8003a86:	3601      	adds	r6, #1
 8003a88:	e7ee      	b.n	8003a68 <__libc_init_array+0xc>
 8003a8a:	00b3      	lsls	r3, r6, #2
 8003a8c:	58eb      	ldr	r3, [r5, r3]
 8003a8e:	4798      	blx	r3
 8003a90:	3601      	adds	r6, #1
 8003a92:	e7f2      	b.n	8003a7a <__libc_init_array+0x1e>
 8003a94:	08004508 	.word	0x08004508
 8003a98:	08004508 	.word	0x08004508
 8003a9c:	0800450c 	.word	0x0800450c
 8003aa0:	08004508 	.word	0x08004508

08003aa4 <powf>:
 8003aa4:	b570      	push	{r4, r5, r6, lr}
 8003aa6:	1c0c      	adds	r4, r1, #0
 8003aa8:	1c06      	adds	r6, r0, #0
 8003aaa:	f000 f859 	bl	8003b60 <__ieee754_powf>
 8003aae:	1c21      	adds	r1, r4, #0
 8003ab0:	1c05      	adds	r5, r0, #0
 8003ab2:	1c20      	adds	r0, r4, #0
 8003ab4:	f7fd fc8a 	bl	80013cc <__aeabi_fcmpun>
 8003ab8:	2800      	cmp	r0, #0
 8003aba:	d133      	bne.n	8003b24 <powf+0x80>
 8003abc:	2100      	movs	r1, #0
 8003abe:	1c30      	adds	r0, r6, #0
 8003ac0:	f7fc fcaa 	bl	8000418 <__aeabi_fcmpeq>
 8003ac4:	2800      	cmp	r0, #0
 8003ac6:	d014      	beq.n	8003af2 <powf+0x4e>
 8003ac8:	2100      	movs	r1, #0
 8003aca:	1c20      	adds	r0, r4, #0
 8003acc:	f7fc fca4 	bl	8000418 <__aeabi_fcmpeq>
 8003ad0:	2800      	cmp	r0, #0
 8003ad2:	d138      	bne.n	8003b46 <powf+0xa2>
 8003ad4:	1c20      	adds	r0, r4, #0
 8003ad6:	f000 f839 	bl	8003b4c <finitef>
 8003ada:	2800      	cmp	r0, #0
 8003adc:	d022      	beq.n	8003b24 <powf+0x80>
 8003ade:	2100      	movs	r1, #0
 8003ae0:	1c20      	adds	r0, r4, #0
 8003ae2:	f7fc fc9f 	bl	8000424 <__aeabi_fcmplt>
 8003ae6:	2800      	cmp	r0, #0
 8003ae8:	d01c      	beq.n	8003b24 <powf+0x80>
 8003aea:	f7ff ffb1 	bl	8003a50 <__errno>
 8003aee:	2322      	movs	r3, #34	@ 0x22
 8003af0:	e017      	b.n	8003b22 <powf+0x7e>
 8003af2:	1c28      	adds	r0, r5, #0
 8003af4:	f000 f82a 	bl	8003b4c <finitef>
 8003af8:	2800      	cmp	r0, #0
 8003afa:	d115      	bne.n	8003b28 <powf+0x84>
 8003afc:	1c30      	adds	r0, r6, #0
 8003afe:	f000 f825 	bl	8003b4c <finitef>
 8003b02:	2800      	cmp	r0, #0
 8003b04:	d010      	beq.n	8003b28 <powf+0x84>
 8003b06:	1c20      	adds	r0, r4, #0
 8003b08:	f000 f820 	bl	8003b4c <finitef>
 8003b0c:	2800      	cmp	r0, #0
 8003b0e:	d00b      	beq.n	8003b28 <powf+0x84>
 8003b10:	1c29      	adds	r1, r5, #0
 8003b12:	1c28      	adds	r0, r5, #0
 8003b14:	f7fd fc5a 	bl	80013cc <__aeabi_fcmpun>
 8003b18:	2800      	cmp	r0, #0
 8003b1a:	d0e6      	beq.n	8003aea <powf+0x46>
 8003b1c:	f7ff ff98 	bl	8003a50 <__errno>
 8003b20:	2321      	movs	r3, #33	@ 0x21
 8003b22:	6003      	str	r3, [r0, #0]
 8003b24:	1c28      	adds	r0, r5, #0
 8003b26:	bd70      	pop	{r4, r5, r6, pc}
 8003b28:	2100      	movs	r1, #0
 8003b2a:	1c28      	adds	r0, r5, #0
 8003b2c:	f7fc fc74 	bl	8000418 <__aeabi_fcmpeq>
 8003b30:	2800      	cmp	r0, #0
 8003b32:	d0f7      	beq.n	8003b24 <powf+0x80>
 8003b34:	1c30      	adds	r0, r6, #0
 8003b36:	f000 f809 	bl	8003b4c <finitef>
 8003b3a:	2800      	cmp	r0, #0
 8003b3c:	d0f2      	beq.n	8003b24 <powf+0x80>
 8003b3e:	1c20      	adds	r0, r4, #0
 8003b40:	f000 f804 	bl	8003b4c <finitef>
 8003b44:	e7cf      	b.n	8003ae6 <powf+0x42>
 8003b46:	25fe      	movs	r5, #254	@ 0xfe
 8003b48:	05ad      	lsls	r5, r5, #22
 8003b4a:	e7eb      	b.n	8003b24 <powf+0x80>

08003b4c <finitef>:
 8003b4c:	22ff      	movs	r2, #255	@ 0xff
 8003b4e:	0043      	lsls	r3, r0, #1
 8003b50:	085b      	lsrs	r3, r3, #1
 8003b52:	2001      	movs	r0, #1
 8003b54:	05d2      	lsls	r2, r2, #23
 8003b56:	4293      	cmp	r3, r2
 8003b58:	db00      	blt.n	8003b5c <finitef+0x10>
 8003b5a:	2000      	movs	r0, #0
 8003b5c:	4770      	bx	lr
	...

08003b60 <__ieee754_powf>:
 8003b60:	b5f0      	push	{r4, r5, r6, r7, lr}
 8003b62:	b08b      	sub	sp, #44	@ 0x2c
 8003b64:	9101      	str	r1, [sp, #4]
 8003b66:	9f01      	ldr	r7, [sp, #4]
 8003b68:	1c04      	adds	r4, r0, #0
 8003b6a:	007b      	lsls	r3, r7, #1
 8003b6c:	9004      	str	r0, [sp, #16]
 8003b6e:	085e      	lsrs	r6, r3, #1
 8003b70:	2b00      	cmp	r3, #0
 8003b72:	d10d      	bne.n	8003b90 <__ieee754_powf+0x30>
 8003b74:	2380      	movs	r3, #128	@ 0x80
 8003b76:	03db      	lsls	r3, r3, #15
 8003b78:	4043      	eors	r3, r0
 8003b7a:	4a88      	ldr	r2, [pc, #544]	@ (8003d9c <__ieee754_powf+0x23c>)
 8003b7c:	005b      	lsls	r3, r3, #1
 8003b7e:	4293      	cmp	r3, r2
 8003b80:	d800      	bhi.n	8003b84 <__ieee754_powf+0x24>
 8003b82:	e2f2      	b.n	800416a <__ieee754_powf+0x60a>
 8003b84:	9901      	ldr	r1, [sp, #4]
 8003b86:	1c20      	adds	r0, r4, #0
 8003b88:	f7fc fca2 	bl	80004d0 <__aeabi_fadd>
 8003b8c:	b00b      	add	sp, #44	@ 0x2c
 8003b8e:	bdf0      	pop	{r4, r5, r6, r7, pc}
 8003b90:	23ff      	movs	r3, #255	@ 0xff
 8003b92:	22fe      	movs	r2, #254	@ 0xfe
 8003b94:	0045      	lsls	r5, r0, #1
 8003b96:	086d      	lsrs	r5, r5, #1
 8003b98:	05db      	lsls	r3, r3, #23
 8003b9a:	0592      	lsls	r2, r2, #22
 8003b9c:	429d      	cmp	r5, r3
 8003b9e:	d801      	bhi.n	8003ba4 <__ieee754_powf+0x44>
 8003ba0:	429e      	cmp	r6, r3
 8003ba2:	d906      	bls.n	8003bb2 <__ieee754_powf+0x52>
 8003ba4:	4294      	cmp	r4, r2
 8003ba6:	d1ed      	bne.n	8003b84 <__ieee754_powf+0x24>
 8003ba8:	2380      	movs	r3, #128	@ 0x80
 8003baa:	9a01      	ldr	r2, [sp, #4]
 8003bac:	03db      	lsls	r3, r3, #15
 8003bae:	4053      	eors	r3, r2
 8003bb0:	e7e3      	b.n	8003b7a <__ieee754_powf+0x1a>
 8003bb2:	2800      	cmp	r0, #0
 8003bb4:	da24      	bge.n	8003c00 <__ieee754_powf+0xa0>
 8003bb6:	2197      	movs	r1, #151	@ 0x97
 8003bb8:	05c9      	lsls	r1, r1, #23
 8003bba:	428e      	cmp	r6, r1
 8003bbc:	d300      	bcc.n	8003bc0 <__ieee754_powf+0x60>
 8003bbe:	e30d      	b.n	80041dc <__ieee754_powf+0x67c>
 8003bc0:	4296      	cmp	r6, r2
 8003bc2:	d333      	bcc.n	8003c2c <__ieee754_powf+0xcc>
 8003bc4:	2296      	movs	r2, #150	@ 0x96
 8003bc6:	15f3      	asrs	r3, r6, #23
 8003bc8:	1ad2      	subs	r2, r2, r3
 8003bca:	0033      	movs	r3, r6
 8003bcc:	4113      	asrs	r3, r2
 8003bce:	0019      	movs	r1, r3
 8003bd0:	4091      	lsls	r1, r2
 8003bd2:	000a      	movs	r2, r1
 8003bd4:	2100      	movs	r1, #0
 8003bd6:	9102      	str	r1, [sp, #8]
 8003bd8:	42b2      	cmp	r2, r6
 8003bda:	d104      	bne.n	8003be6 <__ieee754_powf+0x86>
 8003bdc:	2201      	movs	r2, #1
 8003bde:	4013      	ands	r3, r2
 8003be0:	1892      	adds	r2, r2, r2
 8003be2:	1ad3      	subs	r3, r2, r3
 8003be4:	9302      	str	r3, [sp, #8]
 8003be6:	23fe      	movs	r3, #254	@ 0xfe
 8003be8:	059b      	lsls	r3, r3, #22
 8003bea:	429e      	cmp	r6, r3
 8003bec:	d120      	bne.n	8003c30 <__ieee754_powf+0xd0>
 8003bee:	1c20      	adds	r0, r4, #0
 8003bf0:	2f00      	cmp	r7, #0
 8003bf2:	dacb      	bge.n	8003b8c <__ieee754_powf+0x2c>
 8003bf4:	20fe      	movs	r0, #254	@ 0xfe
 8003bf6:	1c21      	adds	r1, r4, #0
 8003bf8:	0580      	lsls	r0, r0, #22
 8003bfa:	f7fc fe5b 	bl	80008b4 <__aeabi_fdiv>
 8003bfe:	e7c5      	b.n	8003b8c <__ieee754_powf+0x2c>
 8003c00:	2100      	movs	r1, #0
 8003c02:	9102      	str	r1, [sp, #8]
 8003c04:	429e      	cmp	r6, r3
 8003c06:	d1ee      	bne.n	8003be6 <__ieee754_powf+0x86>
 8003c08:	4295      	cmp	r5, r2
 8003c0a:	d100      	bne.n	8003c0e <__ieee754_powf+0xae>
 8003c0c:	e2ad      	b.n	800416a <__ieee754_powf+0x60a>
 8003c0e:	d904      	bls.n	8003c1a <__ieee754_powf+0xba>
 8003c10:	9801      	ldr	r0, [sp, #4]
 8003c12:	2f00      	cmp	r7, #0
 8003c14:	daba      	bge.n	8003b8c <__ieee754_powf+0x2c>
 8003c16:	2000      	movs	r0, #0
 8003c18:	e7b8      	b.n	8003b8c <__ieee754_powf+0x2c>
 8003c1a:	2f00      	cmp	r7, #0
 8003c1c:	dafb      	bge.n	8003c16 <__ieee754_powf+0xb6>
 8003c1e:	2280      	movs	r2, #128	@ 0x80
 8003c20:	0612      	lsls	r2, r2, #24
 8003c22:	4694      	mov	ip, r2
 8003c24:	9b01      	ldr	r3, [sp, #4]
 8003c26:	4463      	add	r3, ip
 8003c28:	0018      	movs	r0, r3
 8003c2a:	e7af      	b.n	8003b8c <__ieee754_powf+0x2c>
 8003c2c:	2300      	movs	r3, #0
 8003c2e:	9302      	str	r3, [sp, #8]
 8003c30:	2380      	movs	r3, #128	@ 0x80
 8003c32:	05db      	lsls	r3, r3, #23
 8003c34:	429f      	cmp	r7, r3
 8003c36:	d104      	bne.n	8003c42 <__ieee754_powf+0xe2>
 8003c38:	1c21      	adds	r1, r4, #0
 8003c3a:	1c20      	adds	r0, r4, #0
 8003c3c:	f7fd f808 	bl	8000c50 <__aeabi_fmul>
 8003c40:	e7a4      	b.n	8003b8c <__ieee754_powf+0x2c>
 8003c42:	23fc      	movs	r3, #252	@ 0xfc
 8003c44:	059b      	lsls	r3, r3, #22
 8003c46:	429f      	cmp	r7, r3
 8003c48:	d000      	beq.n	8003c4c <__ieee754_powf+0xec>
 8003c4a:	e2cc      	b.n	80041e6 <__ieee754_powf+0x686>
 8003c4c:	2c00      	cmp	r4, #0
 8003c4e:	da00      	bge.n	8003c52 <__ieee754_powf+0xf2>
 8003c50:	e2c9      	b.n	80041e6 <__ieee754_powf+0x686>
 8003c52:	1c20      	adds	r0, r4, #0
 8003c54:	f000 fb68 	bl	8004328 <__ieee754_sqrtf>
 8003c58:	e798      	b.n	8003b8c <__ieee754_powf+0x2c>
 8003c5a:	9b02      	ldr	r3, [sp, #8]
 8003c5c:	2b01      	cmp	r3, #1
 8003c5e:	d000      	beq.n	8003c62 <__ieee754_powf+0x102>
 8003c60:	e794      	b.n	8003b8c <__ieee754_powf+0x2c>
 8003c62:	2380      	movs	r3, #128	@ 0x80
 8003c64:	061b      	lsls	r3, r3, #24
 8003c66:	18c0      	adds	r0, r0, r3
 8003c68:	e790      	b.n	8003b8c <__ieee754_powf+0x2c>
 8003c6a:	0fe3      	lsrs	r3, r4, #31
 8003c6c:	3b01      	subs	r3, #1
 8003c6e:	9305      	str	r3, [sp, #20]
 8003c70:	9a05      	ldr	r2, [sp, #20]
 8003c72:	9b02      	ldr	r3, [sp, #8]
 8003c74:	4313      	orrs	r3, r2
 8003c76:	d102      	bne.n	8003c7e <__ieee754_powf+0x11e>
 8003c78:	1c21      	adds	r1, r4, #0
 8003c7a:	1c20      	adds	r0, r4, #0
 8003c7c:	e2d2      	b.n	8004224 <__ieee754_powf+0x6c4>
 8003c7e:	239a      	movs	r3, #154	@ 0x9a
 8003c80:	05db      	lsls	r3, r3, #23
 8003c82:	429e      	cmp	r6, r3
 8003c84:	d800      	bhi.n	8003c88 <__ieee754_powf+0x128>
 8003c86:	e097      	b.n	8003db8 <__ieee754_powf+0x258>
 8003c88:	4b45      	ldr	r3, [pc, #276]	@ (8003da0 <__ieee754_powf+0x240>)
 8003c8a:	429d      	cmp	r5, r3
 8003c8c:	d805      	bhi.n	8003c9a <__ieee754_powf+0x13a>
 8003c8e:	2f00      	cmp	r7, #0
 8003c90:	da08      	bge.n	8003ca4 <__ieee754_powf+0x144>
 8003c92:	2000      	movs	r0, #0
 8003c94:	f000 fb42 	bl	800431c <__math_oflowf>
 8003c98:	e778      	b.n	8003b8c <__ieee754_powf+0x2c>
 8003c9a:	4b42      	ldr	r3, [pc, #264]	@ (8003da4 <__ieee754_powf+0x244>)
 8003c9c:	429d      	cmp	r5, r3
 8003c9e:	d905      	bls.n	8003cac <__ieee754_powf+0x14c>
 8003ca0:	2f00      	cmp	r7, #0
 8003ca2:	dcf6      	bgt.n	8003c92 <__ieee754_powf+0x132>
 8003ca4:	2000      	movs	r0, #0
 8003ca6:	f000 fb33 	bl	8004310 <__math_uflowf>
 8003caa:	e76f      	b.n	8003b8c <__ieee754_powf+0x2c>
 8003cac:	21fe      	movs	r1, #254	@ 0xfe
 8003cae:	0589      	lsls	r1, r1, #22
 8003cb0:	f7fd f928 	bl	8000f04 <__aeabi_fsub>
 8003cb4:	493c      	ldr	r1, [pc, #240]	@ (8003da8 <__ieee754_powf+0x248>)
 8003cb6:	1c04      	adds	r4, r0, #0
 8003cb8:	f7fc ffca 	bl	8000c50 <__aeabi_fmul>
 8003cbc:	493b      	ldr	r1, [pc, #236]	@ (8003dac <__ieee754_powf+0x24c>)
 8003cbe:	1c05      	adds	r5, r0, #0
 8003cc0:	1c20      	adds	r0, r4, #0
 8003cc2:	f7fc ffc5 	bl	8000c50 <__aeabi_fmul>
 8003cc6:	21fa      	movs	r1, #250	@ 0xfa
 8003cc8:	1c06      	adds	r6, r0, #0
 8003cca:	0589      	lsls	r1, r1, #22
 8003ccc:	1c20      	adds	r0, r4, #0
 8003cce:	f7fc ffbf 	bl	8000c50 <__aeabi_fmul>
 8003cd2:	1c01      	adds	r1, r0, #0
 8003cd4:	4836      	ldr	r0, [pc, #216]	@ (8003db0 <__ieee754_powf+0x250>)
 8003cd6:	f7fd f915 	bl	8000f04 <__aeabi_fsub>
 8003cda:	1c21      	adds	r1, r4, #0
 8003cdc:	f7fc ffb8 	bl	8000c50 <__aeabi_fmul>
 8003ce0:	1c01      	adds	r1, r0, #0
 8003ce2:	20fc      	movs	r0, #252	@ 0xfc
 8003ce4:	0580      	lsls	r0, r0, #22
 8003ce6:	f7fd f90d 	bl	8000f04 <__aeabi_fsub>
 8003cea:	1c21      	adds	r1, r4, #0
 8003cec:	1c07      	adds	r7, r0, #0
 8003cee:	1c20      	adds	r0, r4, #0
 8003cf0:	f7fc ffae 	bl	8000c50 <__aeabi_fmul>
 8003cf4:	1c01      	adds	r1, r0, #0
 8003cf6:	1c38      	adds	r0, r7, #0
 8003cf8:	f7fc ffaa 	bl	8000c50 <__aeabi_fmul>
 8003cfc:	492d      	ldr	r1, [pc, #180]	@ (8003db4 <__ieee754_powf+0x254>)
 8003cfe:	f7fc ffa7 	bl	8000c50 <__aeabi_fmul>
 8003d02:	1c01      	adds	r1, r0, #0
 8003d04:	1c30      	adds	r0, r6, #0
 8003d06:	f7fd f8fd 	bl	8000f04 <__aeabi_fsub>
 8003d0a:	1c01      	adds	r1, r0, #0
 8003d0c:	1c06      	adds	r6, r0, #0
 8003d0e:	1c28      	adds	r0, r5, #0
 8003d10:	f7fc fbde 	bl	80004d0 <__aeabi_fadd>
 8003d14:	0b04      	lsrs	r4, r0, #12
 8003d16:	0324      	lsls	r4, r4, #12
 8003d18:	1c29      	adds	r1, r5, #0
 8003d1a:	1c20      	adds	r0, r4, #0
 8003d1c:	f7fd f8f2 	bl	8000f04 <__aeabi_fsub>
 8003d20:	1c01      	adds	r1, r0, #0
 8003d22:	1c30      	adds	r0, r6, #0
 8003d24:	f7fd f8ee 	bl	8000f04 <__aeabi_fsub>
 8003d28:	9b02      	ldr	r3, [sp, #8]
 8003d2a:	9a05      	ldr	r2, [sp, #20]
 8003d2c:	3b01      	subs	r3, #1
 8003d2e:	1c06      	adds	r6, r0, #0
 8003d30:	4313      	orrs	r3, r2
 8003d32:	d100      	bne.n	8003d36 <__ieee754_powf+0x1d6>
 8003d34:	e14d      	b.n	8003fd2 <__ieee754_powf+0x472>
 8003d36:	27fe      	movs	r7, #254	@ 0xfe
 8003d38:	05bf      	lsls	r7, r7, #22
 8003d3a:	9b01      	ldr	r3, [sp, #4]
 8003d3c:	9801      	ldr	r0, [sp, #4]
 8003d3e:	0b1d      	lsrs	r5, r3, #12
 8003d40:	032d      	lsls	r5, r5, #12
 8003d42:	1c29      	adds	r1, r5, #0
 8003d44:	f7fd f8de 	bl	8000f04 <__aeabi_fsub>
 8003d48:	1c21      	adds	r1, r4, #0
 8003d4a:	f7fc ff81 	bl	8000c50 <__aeabi_fmul>
 8003d4e:	9901      	ldr	r1, [sp, #4]
 8003d50:	9002      	str	r0, [sp, #8]
 8003d52:	1c30      	adds	r0, r6, #0
 8003d54:	f7fc ff7c 	bl	8000c50 <__aeabi_fmul>
 8003d58:	1c01      	adds	r1, r0, #0
 8003d5a:	9802      	ldr	r0, [sp, #8]
 8003d5c:	f7fc fbb8 	bl	80004d0 <__aeabi_fadd>
 8003d60:	1c29      	adds	r1, r5, #0
 8003d62:	9001      	str	r0, [sp, #4]
 8003d64:	1c20      	adds	r0, r4, #0
 8003d66:	f7fc ff73 	bl	8000c50 <__aeabi_fmul>
 8003d6a:	1c01      	adds	r1, r0, #0
 8003d6c:	1c04      	adds	r4, r0, #0
 8003d6e:	9801      	ldr	r0, [sp, #4]
 8003d70:	f7fc fbae 	bl	80004d0 <__aeabi_fadd>
 8003d74:	0043      	lsls	r3, r0, #1
 8003d76:	1c06      	adds	r6, r0, #0
 8003d78:	9002      	str	r0, [sp, #8]
 8003d7a:	085b      	lsrs	r3, r3, #1
 8003d7c:	2800      	cmp	r0, #0
 8003d7e:	dc00      	bgt.n	8003d82 <__ieee754_powf+0x222>
 8003d80:	e13d      	b.n	8003ffe <__ieee754_powf+0x49e>
 8003d82:	2286      	movs	r2, #134	@ 0x86
 8003d84:	05d2      	lsls	r2, r2, #23
 8003d86:	4293      	cmp	r3, r2
 8003d88:	d800      	bhi.n	8003d8c <__ieee754_powf+0x22c>
 8003d8a:	e124      	b.n	8003fd6 <__ieee754_powf+0x476>
 8003d8c:	2100      	movs	r1, #0
 8003d8e:	1c38      	adds	r0, r7, #0
 8003d90:	f7fc fb48 	bl	8000424 <__aeabi_fcmplt>
 8003d94:	1e43      	subs	r3, r0, #1
 8003d96:	4198      	sbcs	r0, r3
 8003d98:	e77c      	b.n	8003c94 <__ieee754_powf+0x134>
 8003d9a:	46c0      	nop			@ (mov r8, r8)
 8003d9c:	ff800000 	.word	0xff800000
 8003da0:	3f7ffff3 	.word	0x3f7ffff3
 8003da4:	3f800007 	.word	0x3f800007
 8003da8:	3fb8aa00 	.word	0x3fb8aa00
 8003dac:	36eca570 	.word	0x36eca570
 8003db0:	3eaaaaab 	.word	0x3eaaaaab
 8003db4:	3fb8aa3b 	.word	0x3fb8aa3b
 8003db8:	23ff      	movs	r3, #255	@ 0xff
 8003dba:	05db      	lsls	r3, r3, #23
 8003dbc:	2200      	movs	r2, #0
 8003dbe:	4223      	tst	r3, r4
 8003dc0:	d106      	bne.n	8003dd0 <__ieee754_powf+0x270>
 8003dc2:	2197      	movs	r1, #151	@ 0x97
 8003dc4:	05c9      	lsls	r1, r1, #23
 8003dc6:	f7fc ff43 	bl	8000c50 <__aeabi_fmul>
 8003dca:	2218      	movs	r2, #24
 8003dcc:	9003      	str	r0, [sp, #12]
 8003dce:	4252      	negs	r2, r2
 8003dd0:	24fe      	movs	r4, #254	@ 0xfe
 8003dd2:	9b03      	ldr	r3, [sp, #12]
 8003dd4:	05a4      	lsls	r4, r4, #22
 8003dd6:	15db      	asrs	r3, r3, #23
 8003dd8:	3b7f      	subs	r3, #127	@ 0x7f
 8003dda:	189b      	adds	r3, r3, r2
 8003ddc:	9304      	str	r3, [sp, #16]
 8003dde:	9b03      	ldr	r3, [sp, #12]
 8003de0:	4ae3      	ldr	r2, [pc, #908]	@ (8004170 <__ieee754_powf+0x610>)
 8003de2:	025b      	lsls	r3, r3, #9
 8003de4:	0a5b      	lsrs	r3, r3, #9
 8003de6:	2500      	movs	r5, #0
 8003de8:	431c      	orrs	r4, r3
 8003dea:	4293      	cmp	r3, r2
 8003dec:	dd09      	ble.n	8003e02 <__ieee754_powf+0x2a2>
 8003dee:	4ae1      	ldr	r2, [pc, #900]	@ (8004174 <__ieee754_powf+0x614>)
 8003df0:	3501      	adds	r5, #1
 8003df2:	4293      	cmp	r3, r2
 8003df4:	dd05      	ble.n	8003e02 <__ieee754_powf+0x2a2>
 8003df6:	9b04      	ldr	r3, [sp, #16]
 8003df8:	195b      	adds	r3, r3, r5
 8003dfa:	2500      	movs	r5, #0
 8003dfc:	9304      	str	r3, [sp, #16]
 8003dfe:	4bde      	ldr	r3, [pc, #888]	@ (8004178 <__ieee754_powf+0x618>)
 8003e00:	18e4      	adds	r4, r4, r3
 8003e02:	4bde      	ldr	r3, [pc, #888]	@ (800417c <__ieee754_powf+0x61c>)
 8003e04:	00aa      	lsls	r2, r5, #2
 8003e06:	58d7      	ldr	r7, [r2, r3]
 8003e08:	1c20      	adds	r0, r4, #0
 8003e0a:	1c39      	adds	r1, r7, #0
 8003e0c:	9206      	str	r2, [sp, #24]
 8003e0e:	9409      	str	r4, [sp, #36]	@ 0x24
 8003e10:	f7fd f878 	bl	8000f04 <__aeabi_fsub>
 8003e14:	1c21      	adds	r1, r4, #0
 8003e16:	9007      	str	r0, [sp, #28]
 8003e18:	1c38      	adds	r0, r7, #0
 8003e1a:	f7fc fb59 	bl	80004d0 <__aeabi_fadd>
 8003e1e:	1c01      	adds	r1, r0, #0
 8003e20:	20fe      	movs	r0, #254	@ 0xfe
 8003e22:	0580      	lsls	r0, r0, #22
 8003e24:	f7fc fd46 	bl	80008b4 <__aeabi_fdiv>
 8003e28:	1c01      	adds	r1, r0, #0
 8003e2a:	9008      	str	r0, [sp, #32]
 8003e2c:	9807      	ldr	r0, [sp, #28]
 8003e2e:	f7fc ff0f 	bl	8000c50 <__aeabi_fmul>
 8003e32:	9003      	str	r0, [sp, #12]
 8003e34:	9b03      	ldr	r3, [sp, #12]
 8003e36:	2280      	movs	r2, #128	@ 0x80
 8003e38:	0b1e      	lsrs	r6, r3, #12
 8003e3a:	2380      	movs	r3, #128	@ 0x80
 8003e3c:	1064      	asrs	r4, r4, #1
 8003e3e:	0592      	lsls	r2, r2, #22
 8003e40:	02db      	lsls	r3, r3, #11
 8003e42:	4322      	orrs	r2, r4
 8003e44:	18d2      	adds	r2, r2, r3
 8003e46:	056d      	lsls	r5, r5, #21
 8003e48:	1955      	adds	r5, r2, r5
 8003e4a:	0336      	lsls	r6, r6, #12
 8003e4c:	1c29      	adds	r1, r5, #0
 8003e4e:	1c30      	adds	r0, r6, #0
 8003e50:	f7fc fefe 	bl	8000c50 <__aeabi_fmul>
 8003e54:	1c01      	adds	r1, r0, #0
 8003e56:	9807      	ldr	r0, [sp, #28]
 8003e58:	f7fd f854 	bl	8000f04 <__aeabi_fsub>
 8003e5c:	1c39      	adds	r1, r7, #0
 8003e5e:	1c04      	adds	r4, r0, #0
 8003e60:	1c28      	adds	r0, r5, #0
 8003e62:	f7fd f84f 	bl	8000f04 <__aeabi_fsub>
 8003e66:	1c01      	adds	r1, r0, #0
 8003e68:	9809      	ldr	r0, [sp, #36]	@ 0x24
 8003e6a:	f7fd f84b 	bl	8000f04 <__aeabi_fsub>
 8003e6e:	1c31      	adds	r1, r6, #0
 8003e70:	f7fc feee 	bl	8000c50 <__aeabi_fmul>
 8003e74:	1c01      	adds	r1, r0, #0
 8003e76:	1c20      	adds	r0, r4, #0
 8003e78:	f7fd f844 	bl	8000f04 <__aeabi_fsub>
 8003e7c:	9908      	ldr	r1, [sp, #32]
 8003e7e:	f7fc fee7 	bl	8000c50 <__aeabi_fmul>
 8003e82:	9903      	ldr	r1, [sp, #12]
 8003e84:	9007      	str	r0, [sp, #28]
 8003e86:	1c08      	adds	r0, r1, #0
 8003e88:	f7fc fee2 	bl	8000c50 <__aeabi_fmul>
 8003e8c:	49bc      	ldr	r1, [pc, #752]	@ (8004180 <__ieee754_powf+0x620>)
 8003e8e:	1c04      	adds	r4, r0, #0
 8003e90:	f7fc fede 	bl	8000c50 <__aeabi_fmul>
 8003e94:	49bb      	ldr	r1, [pc, #748]	@ (8004184 <__ieee754_powf+0x624>)
 8003e96:	f7fc fb1b 	bl	80004d0 <__aeabi_fadd>
 8003e9a:	1c21      	adds	r1, r4, #0
 8003e9c:	f7fc fed8 	bl	8000c50 <__aeabi_fmul>
 8003ea0:	49b9      	ldr	r1, [pc, #740]	@ (8004188 <__ieee754_powf+0x628>)
 8003ea2:	f7fc fb15 	bl	80004d0 <__aeabi_fadd>
 8003ea6:	1c21      	adds	r1, r4, #0
 8003ea8:	f7fc fed2 	bl	8000c50 <__aeabi_fmul>
 8003eac:	49b7      	ldr	r1, [pc, #732]	@ (800418c <__ieee754_powf+0x62c>)
 8003eae:	f7fc fb0f 	bl	80004d0 <__aeabi_fadd>
 8003eb2:	1c21      	adds	r1, r4, #0
 8003eb4:	f7fc fecc 	bl	8000c50 <__aeabi_fmul>
 8003eb8:	49b5      	ldr	r1, [pc, #724]	@ (8004190 <__ieee754_powf+0x630>)
 8003eba:	f7fc fb09 	bl	80004d0 <__aeabi_fadd>
 8003ebe:	1c21      	adds	r1, r4, #0
 8003ec0:	f7fc fec6 	bl	8000c50 <__aeabi_fmul>
 8003ec4:	49b3      	ldr	r1, [pc, #716]	@ (8004194 <__ieee754_powf+0x634>)
 8003ec6:	f7fc fb03 	bl	80004d0 <__aeabi_fadd>
 8003eca:	1c21      	adds	r1, r4, #0
 8003ecc:	1c05      	adds	r5, r0, #0
 8003ece:	1c20      	adds	r0, r4, #0
 8003ed0:	f7fc febe 	bl	8000c50 <__aeabi_fmul>
 8003ed4:	1c01      	adds	r1, r0, #0
 8003ed6:	1c28      	adds	r0, r5, #0
 8003ed8:	f7fc feba 	bl	8000c50 <__aeabi_fmul>
 8003edc:	1c31      	adds	r1, r6, #0
 8003ede:	1c04      	adds	r4, r0, #0
 8003ee0:	9803      	ldr	r0, [sp, #12]
 8003ee2:	f7fc faf5 	bl	80004d0 <__aeabi_fadd>
 8003ee6:	9907      	ldr	r1, [sp, #28]
 8003ee8:	f7fc feb2 	bl	8000c50 <__aeabi_fmul>
 8003eec:	1c21      	adds	r1, r4, #0
 8003eee:	f7fc faef 	bl	80004d0 <__aeabi_fadd>
 8003ef2:	1c31      	adds	r1, r6, #0
 8003ef4:	9008      	str	r0, [sp, #32]
 8003ef6:	1c30      	adds	r0, r6, #0
 8003ef8:	f7fc feaa 	bl	8000c50 <__aeabi_fmul>
 8003efc:	49a6      	ldr	r1, [pc, #664]	@ (8004198 <__ieee754_powf+0x638>)
 8003efe:	1c07      	adds	r7, r0, #0
 8003f00:	f7fc fae6 	bl	80004d0 <__aeabi_fadd>
 8003f04:	9908      	ldr	r1, [sp, #32]
 8003f06:	f7fc fae3 	bl	80004d0 <__aeabi_fadd>
 8003f0a:	0b04      	lsrs	r4, r0, #12
 8003f0c:	0324      	lsls	r4, r4, #12
 8003f0e:	1c21      	adds	r1, r4, #0
 8003f10:	1c30      	adds	r0, r6, #0
 8003f12:	f7fc fe9d 	bl	8000c50 <__aeabi_fmul>
 8003f16:	49a0      	ldr	r1, [pc, #640]	@ (8004198 <__ieee754_powf+0x638>)
 8003f18:	1c05      	adds	r5, r0, #0
 8003f1a:	1c20      	adds	r0, r4, #0
 8003f1c:	f7fc fff2 	bl	8000f04 <__aeabi_fsub>
 8003f20:	1c39      	adds	r1, r7, #0
 8003f22:	f7fc ffef 	bl	8000f04 <__aeabi_fsub>
 8003f26:	1c01      	adds	r1, r0, #0
 8003f28:	9808      	ldr	r0, [sp, #32]
 8003f2a:	f7fc ffeb 	bl	8000f04 <__aeabi_fsub>
 8003f2e:	9903      	ldr	r1, [sp, #12]
 8003f30:	f7fc fe8e 	bl	8000c50 <__aeabi_fmul>
 8003f34:	1c21      	adds	r1, r4, #0
 8003f36:	1c06      	adds	r6, r0, #0
 8003f38:	9807      	ldr	r0, [sp, #28]
 8003f3a:	f7fc fe89 	bl	8000c50 <__aeabi_fmul>
 8003f3e:	1c01      	adds	r1, r0, #0
 8003f40:	1c30      	adds	r0, r6, #0
 8003f42:	f7fc fac5 	bl	80004d0 <__aeabi_fadd>
 8003f46:	1c06      	adds	r6, r0, #0
 8003f48:	1c01      	adds	r1, r0, #0
 8003f4a:	1c28      	adds	r0, r5, #0
 8003f4c:	f7fc fac0 	bl	80004d0 <__aeabi_fadd>
 8003f50:	0b04      	lsrs	r4, r0, #12
 8003f52:	0324      	lsls	r4, r4, #12
 8003f54:	4991      	ldr	r1, [pc, #580]	@ (800419c <__ieee754_powf+0x63c>)
 8003f56:	1c20      	adds	r0, r4, #0
 8003f58:	f7fc fe7a 	bl	8000c50 <__aeabi_fmul>
 8003f5c:	1c29      	adds	r1, r5, #0
 8003f5e:	9003      	str	r0, [sp, #12]
 8003f60:	1c20      	adds	r0, r4, #0
 8003f62:	f7fc ffcf 	bl	8000f04 <__aeabi_fsub>
 8003f66:	1c01      	adds	r1, r0, #0
 8003f68:	1c30      	adds	r0, r6, #0
 8003f6a:	f7fc ffcb 	bl	8000f04 <__aeabi_fsub>
 8003f6e:	498c      	ldr	r1, [pc, #560]	@ (80041a0 <__ieee754_powf+0x640>)
 8003f70:	f7fc fe6e 	bl	8000c50 <__aeabi_fmul>
 8003f74:	498b      	ldr	r1, [pc, #556]	@ (80041a4 <__ieee754_powf+0x644>)
 8003f76:	1c05      	adds	r5, r0, #0
 8003f78:	1c20      	adds	r0, r4, #0
 8003f7a:	f7fc fe69 	bl	8000c50 <__aeabi_fmul>
 8003f7e:	1c01      	adds	r1, r0, #0
 8003f80:	1c28      	adds	r0, r5, #0
 8003f82:	f7fc faa5 	bl	80004d0 <__aeabi_fadd>
 8003f86:	9a06      	ldr	r2, [sp, #24]
 8003f88:	4b87      	ldr	r3, [pc, #540]	@ (80041a8 <__ieee754_powf+0x648>)
 8003f8a:	58d1      	ldr	r1, [r2, r3]
 8003f8c:	f7fc faa0 	bl	80004d0 <__aeabi_fadd>
 8003f90:	1c05      	adds	r5, r0, #0
 8003f92:	9804      	ldr	r0, [sp, #16]
 8003f94:	f7fd fa50 	bl	8001438 <__aeabi_i2f>
 8003f98:	4b84      	ldr	r3, [pc, #528]	@ (80041ac <__ieee754_powf+0x64c>)
 8003f9a:	9a06      	ldr	r2, [sp, #24]
 8003f9c:	1c06      	adds	r6, r0, #0
 8003f9e:	58d7      	ldr	r7, [r2, r3]
 8003fa0:	1c29      	adds	r1, r5, #0
 8003fa2:	9803      	ldr	r0, [sp, #12]
 8003fa4:	f7fc fa94 	bl	80004d0 <__aeabi_fadd>
 8003fa8:	1c39      	adds	r1, r7, #0
 8003faa:	f7fc fa91 	bl	80004d0 <__aeabi_fadd>
 8003fae:	1c31      	adds	r1, r6, #0
 8003fb0:	f7fc fa8e 	bl	80004d0 <__aeabi_fadd>
 8003fb4:	0b04      	lsrs	r4, r0, #12
 8003fb6:	0324      	lsls	r4, r4, #12
 8003fb8:	1c31      	adds	r1, r6, #0
 8003fba:	1c20      	adds	r0, r4, #0
 8003fbc:	f7fc ffa2 	bl	8000f04 <__aeabi_fsub>
 8003fc0:	1c39      	adds	r1, r7, #0
 8003fc2:	f7fc ff9f 	bl	8000f04 <__aeabi_fsub>
 8003fc6:	9903      	ldr	r1, [sp, #12]
 8003fc8:	f7fc ff9c 	bl	8000f04 <__aeabi_fsub>
 8003fcc:	1c01      	adds	r1, r0, #0
 8003fce:	1c28      	adds	r0, r5, #0
 8003fd0:	e6a8      	b.n	8003d24 <__ieee754_powf+0x1c4>
 8003fd2:	4f77      	ldr	r7, [pc, #476]	@ (80041b0 <__ieee754_powf+0x650>)
 8003fd4:	e6b1      	b.n	8003d3a <__ieee754_powf+0x1da>
 8003fd6:	4293      	cmp	r3, r2
 8003fd8:	d126      	bne.n	8004028 <__ieee754_powf+0x4c8>
 8003fda:	4976      	ldr	r1, [pc, #472]	@ (80041b4 <__ieee754_powf+0x654>)
 8003fdc:	9801      	ldr	r0, [sp, #4]
 8003fde:	f7fc fa77 	bl	80004d0 <__aeabi_fadd>
 8003fe2:	1c21      	adds	r1, r4, #0
 8003fe4:	1c05      	adds	r5, r0, #0
 8003fe6:	1c30      	adds	r0, r6, #0
 8003fe8:	f7fc ff8c 	bl	8000f04 <__aeabi_fsub>
 8003fec:	1c01      	adds	r1, r0, #0
 8003fee:	1c28      	adds	r0, r5, #0
 8003ff0:	f7fc fa2c 	bl	800044c <__aeabi_fcmpgt>
 8003ff4:	2800      	cmp	r0, #0
 8003ff6:	d000      	beq.n	8003ffa <__ieee754_powf+0x49a>
 8003ff8:	e6c8      	b.n	8003d8c <__ieee754_powf+0x22c>
 8003ffa:	2386      	movs	r3, #134	@ 0x86
 8003ffc:	e01a      	b.n	8004034 <__ieee754_powf+0x4d4>
 8003ffe:	4a6e      	ldr	r2, [pc, #440]	@ (80041b8 <__ieee754_powf+0x658>)
 8004000:	4293      	cmp	r3, r2
 8004002:	d906      	bls.n	8004012 <__ieee754_powf+0x4b2>
 8004004:	2100      	movs	r1, #0
 8004006:	1c38      	adds	r0, r7, #0
 8004008:	f7fc fa0c 	bl	8000424 <__aeabi_fcmplt>
 800400c:	1e43      	subs	r3, r0, #1
 800400e:	4198      	sbcs	r0, r3
 8004010:	e649      	b.n	8003ca6 <__ieee754_powf+0x146>
 8004012:	4293      	cmp	r3, r2
 8004014:	d108      	bne.n	8004028 <__ieee754_powf+0x4c8>
 8004016:	1c21      	adds	r1, r4, #0
 8004018:	f7fc ff74 	bl	8000f04 <__aeabi_fsub>
 800401c:	9901      	ldr	r1, [sp, #4]
 800401e:	f7fc fa1f 	bl	8000460 <__aeabi_fcmpge>
 8004022:	2800      	cmp	r0, #0
 8004024:	d0e9      	beq.n	8003ffa <__ieee754_powf+0x49a>
 8004026:	e7ed      	b.n	8004004 <__ieee754_powf+0x4a4>
 8004028:	22fc      	movs	r2, #252	@ 0xfc
 800402a:	2500      	movs	r5, #0
 800402c:	0592      	lsls	r2, r2, #22
 800402e:	4293      	cmp	r3, r2
 8004030:	d91a      	bls.n	8004068 <__ieee754_powf+0x508>
 8004032:	15db      	asrs	r3, r3, #23
 8004034:	2580      	movs	r5, #128	@ 0x80
 8004036:	042d      	lsls	r5, r5, #16
 8004038:	002a      	movs	r2, r5
 800403a:	3b7e      	subs	r3, #126	@ 0x7e
 800403c:	411a      	asrs	r2, r3
 800403e:	1993      	adds	r3, r2, r6
 8004040:	15da      	asrs	r2, r3, #23
 8004042:	494d      	ldr	r1, [pc, #308]	@ (8004178 <__ieee754_powf+0x618>)
 8004044:	b2d2      	uxtb	r2, r2
 8004046:	3a7f      	subs	r2, #127	@ 0x7f
 8004048:	4111      	asrs	r1, r2
 800404a:	4019      	ands	r1, r3
 800404c:	025b      	lsls	r3, r3, #9
 800404e:	0a5b      	lsrs	r3, r3, #9
 8004050:	431d      	orrs	r5, r3
 8004052:	2317      	movs	r3, #23
 8004054:	1a9b      	subs	r3, r3, r2
 8004056:	411d      	asrs	r5, r3
 8004058:	9b02      	ldr	r3, [sp, #8]
 800405a:	2b00      	cmp	r3, #0
 800405c:	da00      	bge.n	8004060 <__ieee754_powf+0x500>
 800405e:	426d      	negs	r5, r5
 8004060:	1c20      	adds	r0, r4, #0
 8004062:	f7fc ff4f 	bl	8000f04 <__aeabi_fsub>
 8004066:	1c04      	adds	r4, r0, #0
 8004068:	9901      	ldr	r1, [sp, #4]
 800406a:	1c20      	adds	r0, r4, #0
 800406c:	f7fc fa30 	bl	80004d0 <__aeabi_fadd>
 8004070:	0b00      	lsrs	r0, r0, #12
 8004072:	0303      	lsls	r3, r0, #12
 8004074:	1c18      	adds	r0, r3, #0
 8004076:	4951      	ldr	r1, [pc, #324]	@ (80041bc <__ieee754_powf+0x65c>)
 8004078:	001e      	movs	r6, r3
 800407a:	f7fc fde9 	bl	8000c50 <__aeabi_fmul>
 800407e:	1c21      	adds	r1, r4, #0
 8004080:	9002      	str	r0, [sp, #8]
 8004082:	1c30      	adds	r0, r6, #0
 8004084:	f7fc ff3e 	bl	8000f04 <__aeabi_fsub>
 8004088:	1c01      	adds	r1, r0, #0
 800408a:	9801      	ldr	r0, [sp, #4]
 800408c:	f7fc ff3a 	bl	8000f04 <__aeabi_fsub>
 8004090:	494b      	ldr	r1, [pc, #300]	@ (80041c0 <__ieee754_powf+0x660>)
 8004092:	f7fc fddd 	bl	8000c50 <__aeabi_fmul>
 8004096:	494b      	ldr	r1, [pc, #300]	@ (80041c4 <__ieee754_powf+0x664>)
 8004098:	1c04      	adds	r4, r0, #0
 800409a:	1c30      	adds	r0, r6, #0
 800409c:	f7fc fdd8 	bl	8000c50 <__aeabi_fmul>
 80040a0:	1c01      	adds	r1, r0, #0
 80040a2:	1c20      	adds	r0, r4, #0
 80040a4:	f7fc fa14 	bl	80004d0 <__aeabi_fadd>
 80040a8:	1c06      	adds	r6, r0, #0
 80040aa:	1c01      	adds	r1, r0, #0
 80040ac:	9802      	ldr	r0, [sp, #8]
 80040ae:	f7fc fa0f 	bl	80004d0 <__aeabi_fadd>
 80040b2:	9902      	ldr	r1, [sp, #8]
 80040b4:	1c04      	adds	r4, r0, #0
 80040b6:	f7fc ff25 	bl	8000f04 <__aeabi_fsub>
 80040ba:	1c01      	adds	r1, r0, #0
 80040bc:	1c30      	adds	r0, r6, #0
 80040be:	f7fc ff21 	bl	8000f04 <__aeabi_fsub>
 80040c2:	1c21      	adds	r1, r4, #0
 80040c4:	9001      	str	r0, [sp, #4]
 80040c6:	1c20      	adds	r0, r4, #0
 80040c8:	f7fc fdc2 	bl	8000c50 <__aeabi_fmul>
 80040cc:	493e      	ldr	r1, [pc, #248]	@ (80041c8 <__ieee754_powf+0x668>)
 80040ce:	1c06      	adds	r6, r0, #0
 80040d0:	f7fc fdbe 	bl	8000c50 <__aeabi_fmul>
 80040d4:	493d      	ldr	r1, [pc, #244]	@ (80041cc <__ieee754_powf+0x66c>)
 80040d6:	f7fc ff15 	bl	8000f04 <__aeabi_fsub>
 80040da:	1c31      	adds	r1, r6, #0
 80040dc:	f7fc fdb8 	bl	8000c50 <__aeabi_fmul>
 80040e0:	493b      	ldr	r1, [pc, #236]	@ (80041d0 <__ieee754_powf+0x670>)
 80040e2:	f7fc f9f5 	bl	80004d0 <__aeabi_fadd>
 80040e6:	1c31      	adds	r1, r6, #0
 80040e8:	f7fc fdb2 	bl	8000c50 <__aeabi_fmul>
 80040ec:	4939      	ldr	r1, [pc, #228]	@ (80041d4 <__ieee754_powf+0x674>)
 80040ee:	f7fc ff09 	bl	8000f04 <__aeabi_fsub>
 80040f2:	1c31      	adds	r1, r6, #0
 80040f4:	f7fc fdac 	bl	8000c50 <__aeabi_fmul>
 80040f8:	4937      	ldr	r1, [pc, #220]	@ (80041d8 <__ieee754_powf+0x678>)
 80040fa:	f7fc f9e9 	bl	80004d0 <__aeabi_fadd>
 80040fe:	1c31      	adds	r1, r6, #0
 8004100:	f7fc fda6 	bl	8000c50 <__aeabi_fmul>
 8004104:	1c01      	adds	r1, r0, #0
 8004106:	1c20      	adds	r0, r4, #0
 8004108:	f7fc fefc 	bl	8000f04 <__aeabi_fsub>
 800410c:	1c06      	adds	r6, r0, #0
 800410e:	1c01      	adds	r1, r0, #0
 8004110:	1c20      	adds	r0, r4, #0
 8004112:	f7fc fd9d 	bl	8000c50 <__aeabi_fmul>
 8004116:	2180      	movs	r1, #128	@ 0x80
 8004118:	9002      	str	r0, [sp, #8]
 800411a:	05c9      	lsls	r1, r1, #23
 800411c:	1c30      	adds	r0, r6, #0
 800411e:	f7fc fef1 	bl	8000f04 <__aeabi_fsub>
 8004122:	1c01      	adds	r1, r0, #0
 8004124:	9802      	ldr	r0, [sp, #8]
 8004126:	f7fc fbc5 	bl	80008b4 <__aeabi_fdiv>
 800412a:	9901      	ldr	r1, [sp, #4]
 800412c:	1c06      	adds	r6, r0, #0
 800412e:	1c20      	adds	r0, r4, #0
 8004130:	f7fc fd8e 	bl	8000c50 <__aeabi_fmul>
 8004134:	9901      	ldr	r1, [sp, #4]
 8004136:	f7fc f9cb 	bl	80004d0 <__aeabi_fadd>
 800413a:	1c01      	adds	r1, r0, #0
 800413c:	1c30      	adds	r0, r6, #0
 800413e:	f7fc fee1 	bl	8000f04 <__aeabi_fsub>
 8004142:	1c21      	adds	r1, r4, #0
 8004144:	f7fc fede 	bl	8000f04 <__aeabi_fsub>
 8004148:	1c01      	adds	r1, r0, #0
 800414a:	20fe      	movs	r0, #254	@ 0xfe
 800414c:	0580      	lsls	r0, r0, #22
 800414e:	f7fc fed9 	bl	8000f04 <__aeabi_fsub>
 8004152:	05eb      	lsls	r3, r5, #23
 8004154:	181b      	adds	r3, r3, r0
 8004156:	15da      	asrs	r2, r3, #23
 8004158:	2a00      	cmp	r2, #0
 800415a:	dc04      	bgt.n	8004166 <__ieee754_powf+0x606>
 800415c:	0029      	movs	r1, r5
 800415e:	f000 f86b 	bl	8004238 <scalbnf>
 8004162:	1c39      	adds	r1, r7, #0
 8004164:	e56a      	b.n	8003c3c <__ieee754_powf+0xdc>
 8004166:	1c18      	adds	r0, r3, #0
 8004168:	e7fb      	b.n	8004162 <__ieee754_powf+0x602>
 800416a:	20fe      	movs	r0, #254	@ 0xfe
 800416c:	0580      	lsls	r0, r0, #22
 800416e:	e50d      	b.n	8003b8c <__ieee754_powf+0x2c>
 8004170:	001cc471 	.word	0x001cc471
 8004174:	005db3d6 	.word	0x005db3d6
 8004178:	ff800000 	.word	0xff800000
 800417c:	080044f8 	.word	0x080044f8
 8004180:	3e53f142 	.word	0x3e53f142
 8004184:	3e6c3255 	.word	0x3e6c3255
 8004188:	3e8ba305 	.word	0x3e8ba305
 800418c:	3eaaaaab 	.word	0x3eaaaaab
 8004190:	3edb6db7 	.word	0x3edb6db7
 8004194:	3f19999a 	.word	0x3f19999a
 8004198:	40400000 	.word	0x40400000
 800419c:	3f763800 	.word	0x3f763800
 80041a0:	3f76384f 	.word	0x3f76384f
 80041a4:	369dc3a0 	.word	0x369dc3a0
 80041a8:	080044e8 	.word	0x080044e8
 80041ac:	080044f0 	.word	0x080044f0
 80041b0:	bf800000 	.word	0xbf800000
 80041b4:	3338aa3c 	.word	0x3338aa3c
 80041b8:	43160000 	.word	0x43160000
 80041bc:	3f317200 	.word	0x3f317200
 80041c0:	3f317218 	.word	0x3f317218
 80041c4:	35bfbe8c 	.word	0x35bfbe8c
 80041c8:	3331bb4c 	.word	0x3331bb4c
 80041cc:	35ddea0e 	.word	0x35ddea0e
 80041d0:	388ab355 	.word	0x388ab355
 80041d4:	3b360b61 	.word	0x3b360b61
 80041d8:	3e2aaaab 	.word	0x3e2aaaab
 80041dc:	429e      	cmp	r6, r3
 80041de:	d100      	bne.n	80041e2 <__ieee754_powf+0x682>
 80041e0:	e512      	b.n	8003c08 <__ieee754_powf+0xa8>
 80041e2:	2302      	movs	r3, #2
 80041e4:	9302      	str	r3, [sp, #8]
 80041e6:	1c20      	adds	r0, r4, #0
 80041e8:	9503      	str	r5, [sp, #12]
 80041ea:	f000 f821 	bl	8004230 <fabsf>
 80041ee:	22fe      	movs	r2, #254	@ 0xfe
 80041f0:	00a3      	lsls	r3, r4, #2
 80041f2:	089b      	lsrs	r3, r3, #2
 80041f4:	0592      	lsls	r2, r2, #22
 80041f6:	4293      	cmp	r3, r2
 80041f8:	d002      	beq.n	8004200 <__ieee754_powf+0x6a0>
 80041fa:	2d00      	cmp	r5, #0
 80041fc:	d000      	beq.n	8004200 <__ieee754_powf+0x6a0>
 80041fe:	e534      	b.n	8003c6a <__ieee754_powf+0x10a>
 8004200:	2f00      	cmp	r7, #0
 8004202:	da04      	bge.n	800420e <__ieee754_powf+0x6ae>
 8004204:	1c01      	adds	r1, r0, #0
 8004206:	20fe      	movs	r0, #254	@ 0xfe
 8004208:	0580      	lsls	r0, r0, #22
 800420a:	f7fc fb53 	bl	80008b4 <__aeabi_fdiv>
 800420e:	9b04      	ldr	r3, [sp, #16]
 8004210:	2b00      	cmp	r3, #0
 8004212:	db00      	blt.n	8004216 <__ieee754_powf+0x6b6>
 8004214:	e4ba      	b.n	8003b8c <__ieee754_powf+0x2c>
 8004216:	4b05      	ldr	r3, [pc, #20]	@ (800422c <__ieee754_powf+0x6cc>)
 8004218:	18ed      	adds	r5, r5, r3
 800421a:	9b02      	ldr	r3, [sp, #8]
 800421c:	431d      	orrs	r5, r3
 800421e:	d000      	beq.n	8004222 <__ieee754_powf+0x6c2>
 8004220:	e51b      	b.n	8003c5a <__ieee754_powf+0xfa>
 8004222:	1c01      	adds	r1, r0, #0
 8004224:	f7fc fe6e 	bl	8000f04 <__aeabi_fsub>
 8004228:	1c01      	adds	r1, r0, #0
 800422a:	e4e6      	b.n	8003bfa <__ieee754_powf+0x9a>
 800422c:	c0800000 	.word	0xc0800000

08004230 <fabsf>:
 8004230:	0040      	lsls	r0, r0, #1
 8004232:	0840      	lsrs	r0, r0, #1
 8004234:	4770      	bx	lr
	...

08004238 <scalbnf>:
 8004238:	0043      	lsls	r3, r0, #1
 800423a:	b570      	push	{r4, r5, r6, lr}
 800423c:	0002      	movs	r2, r0
 800423e:	000c      	movs	r4, r1
 8004240:	085d      	lsrs	r5, r3, #1
 8004242:	2b00      	cmp	r3, #0
 8004244:	d006      	beq.n	8004254 <scalbnf+0x1c>
 8004246:	21ff      	movs	r1, #255	@ 0xff
 8004248:	05c9      	lsls	r1, r1, #23
 800424a:	428d      	cmp	r5, r1
 800424c:	d303      	bcc.n	8004256 <scalbnf+0x1e>
 800424e:	1c01      	adds	r1, r0, #0
 8004250:	f7fc f93e 	bl	80004d0 <__aeabi_fadd>
 8004254:	bd70      	pop	{r4, r5, r6, pc}
 8004256:	4208      	tst	r0, r1
 8004258:	d118      	bne.n	800428c <scalbnf+0x54>
 800425a:	2198      	movs	r1, #152	@ 0x98
 800425c:	05c9      	lsls	r1, r1, #23
 800425e:	f7fc fcf7 	bl	8000c50 <__aeabi_fmul>
 8004262:	4b19      	ldr	r3, [pc, #100]	@ (80042c8 <scalbnf+0x90>)
 8004264:	429c      	cmp	r4, r3
 8004266:	db0d      	blt.n	8004284 <scalbnf+0x4c>
 8004268:	0002      	movs	r2, r0
 800426a:	15c3      	asrs	r3, r0, #23
 800426c:	b2db      	uxtb	r3, r3
 800426e:	3b19      	subs	r3, #25
 8004270:	4916      	ldr	r1, [pc, #88]	@ (80042cc <scalbnf+0x94>)
 8004272:	428c      	cmp	r4, r1
 8004274:	dd0c      	ble.n	8004290 <scalbnf+0x58>
 8004276:	4b16      	ldr	r3, [pc, #88]	@ (80042d0 <scalbnf+0x98>)
 8004278:	2800      	cmp	r0, #0
 800427a:	da00      	bge.n	800427e <scalbnf+0x46>
 800427c:	4b15      	ldr	r3, [pc, #84]	@ (80042d4 <scalbnf+0x9c>)
 800427e:	4914      	ldr	r1, [pc, #80]	@ (80042d0 <scalbnf+0x98>)
 8004280:	1c18      	adds	r0, r3, #0
 8004282:	e000      	b.n	8004286 <scalbnf+0x4e>
 8004284:	4914      	ldr	r1, [pc, #80]	@ (80042d8 <scalbnf+0xa0>)
 8004286:	f7fc fce3 	bl	8000c50 <__aeabi_fmul>
 800428a:	e7e3      	b.n	8004254 <scalbnf+0x1c>
 800428c:	0e1b      	lsrs	r3, r3, #24
 800428e:	e7ef      	b.n	8004270 <scalbnf+0x38>
 8004290:	1919      	adds	r1, r3, r4
 8004292:	29fe      	cmp	r1, #254	@ 0xfe
 8004294:	dcef      	bgt.n	8004276 <scalbnf+0x3e>
 8004296:	2900      	cmp	r1, #0
 8004298:	dd04      	ble.n	80042a4 <scalbnf+0x6c>
 800429a:	4810      	ldr	r0, [pc, #64]	@ (80042dc <scalbnf+0xa4>)
 800429c:	05c9      	lsls	r1, r1, #23
 800429e:	4010      	ands	r0, r2
 80042a0:	4308      	orrs	r0, r1
 80042a2:	e7d7      	b.n	8004254 <scalbnf+0x1c>
 80042a4:	000b      	movs	r3, r1
 80042a6:	3316      	adds	r3, #22
 80042a8:	da05      	bge.n	80042b6 <scalbnf+0x7e>
 80042aa:	4b0b      	ldr	r3, [pc, #44]	@ (80042d8 <scalbnf+0xa0>)
 80042ac:	2800      	cmp	r0, #0
 80042ae:	da00      	bge.n	80042b2 <scalbnf+0x7a>
 80042b0:	4b0b      	ldr	r3, [pc, #44]	@ (80042e0 <scalbnf+0xa8>)
 80042b2:	4909      	ldr	r1, [pc, #36]	@ (80042d8 <scalbnf+0xa0>)
 80042b4:	e7e4      	b.n	8004280 <scalbnf+0x48>
 80042b6:	3119      	adds	r1, #25
 80042b8:	05c8      	lsls	r0, r1, #23
 80042ba:	21cc      	movs	r1, #204	@ 0xcc
 80042bc:	4b07      	ldr	r3, [pc, #28]	@ (80042dc <scalbnf+0xa4>)
 80042be:	0589      	lsls	r1, r1, #22
 80042c0:	401a      	ands	r2, r3
 80042c2:	4310      	orrs	r0, r2
 80042c4:	e7df      	b.n	8004286 <scalbnf+0x4e>
 80042c6:	46c0      	nop			@ (mov r8, r8)
 80042c8:	ffff3cb0 	.word	0xffff3cb0
 80042cc:	0000c350 	.word	0x0000c350
 80042d0:	7149f2ca 	.word	0x7149f2ca
 80042d4:	f149f2ca 	.word	0xf149f2ca
 80042d8:	0da24260 	.word	0x0da24260
 80042dc:	807fffff 	.word	0x807fffff
 80042e0:	8da24260 	.word	0x8da24260

080042e4 <with_errnof>:
 80042e4:	b570      	push	{r4, r5, r6, lr}
 80042e6:	000d      	movs	r5, r1
 80042e8:	1c04      	adds	r4, r0, #0
 80042ea:	f7ff fbb1 	bl	8003a50 <__errno>
 80042ee:	6005      	str	r5, [r0, #0]
 80042f0:	1c20      	adds	r0, r4, #0
 80042f2:	bd70      	pop	{r4, r5, r6, pc}

080042f4 <xflowf>:
 80042f4:	b510      	push	{r4, lr}
 80042f6:	1c0b      	adds	r3, r1, #0
 80042f8:	2800      	cmp	r0, #0
 80042fa:	d002      	beq.n	8004302 <xflowf+0xe>
 80042fc:	2380      	movs	r3, #128	@ 0x80
 80042fe:	061b      	lsls	r3, r3, #24
 8004300:	18cb      	adds	r3, r1, r3
 8004302:	1c18      	adds	r0, r3, #0
 8004304:	f7fc fca4 	bl	8000c50 <__aeabi_fmul>
 8004308:	2122      	movs	r1, #34	@ 0x22
 800430a:	f7ff ffeb 	bl	80042e4 <with_errnof>
 800430e:	bd10      	pop	{r4, pc}

08004310 <__math_uflowf>:
 8004310:	2180      	movs	r1, #128	@ 0x80
 8004312:	b510      	push	{r4, lr}
 8004314:	0549      	lsls	r1, r1, #21
 8004316:	f7ff ffed 	bl	80042f4 <xflowf>
 800431a:	bd10      	pop	{r4, pc}

0800431c <__math_oflowf>:
 800431c:	21e0      	movs	r1, #224	@ 0xe0
 800431e:	b510      	push	{r4, lr}
 8004320:	05c9      	lsls	r1, r1, #23
 8004322:	f7ff ffe7 	bl	80042f4 <xflowf>
 8004326:	bd10      	pop	{r4, pc}

08004328 <__ieee754_sqrtf>:
 8004328:	b5f7      	push	{r0, r1, r2, r4, r5, r6, r7, lr}
 800432a:	21ff      	movs	r1, #255	@ 0xff
 800432c:	0042      	lsls	r2, r0, #1
 800432e:	0003      	movs	r3, r0
 8004330:	1c04      	adds	r4, r0, #0
 8004332:	0852      	lsrs	r2, r2, #1
 8004334:	05c9      	lsls	r1, r1, #23
 8004336:	428a      	cmp	r2, r1
 8004338:	d309      	bcc.n	800434e <__ieee754_sqrtf+0x26>
 800433a:	1c01      	adds	r1, r0, #0
 800433c:	f7fc fc88 	bl	8000c50 <__aeabi_fmul>
 8004340:	1c01      	adds	r1, r0, #0
 8004342:	1c20      	adds	r0, r4, #0
 8004344:	f7fc f8c4 	bl	80004d0 <__aeabi_fadd>
 8004348:	1c04      	adds	r4, r0, #0
 800434a:	1c20      	adds	r0, r4, #0
 800434c:	bdfe      	pop	{r1, r2, r3, r4, r5, r6, r7, pc}
 800434e:	2a00      	cmp	r2, #0
 8004350:	d0fb      	beq.n	800434a <__ieee754_sqrtf+0x22>
 8004352:	2800      	cmp	r0, #0
 8004354:	da06      	bge.n	8004364 <__ieee754_sqrtf+0x3c>
 8004356:	1c01      	adds	r1, r0, #0
 8004358:	f7fc fdd4 	bl	8000f04 <__aeabi_fsub>
 800435c:	1c01      	adds	r1, r0, #0
 800435e:	f7fc faa9 	bl	80008b4 <__aeabi_fdiv>
 8004362:	e7f1      	b.n	8004348 <__ieee754_sqrtf+0x20>
 8004364:	0002      	movs	r2, r0
 8004366:	400a      	ands	r2, r1
 8004368:	4208      	tst	r0, r1
 800436a:	d040      	beq.n	80043ee <__ieee754_sqrtf+0xc6>
 800436c:	15c1      	asrs	r1, r0, #23
 800436e:	2280      	movs	r2, #128	@ 0x80
 8004370:	000f      	movs	r7, r1
 8004372:	025b      	lsls	r3, r3, #9
 8004374:	0a5b      	lsrs	r3, r3, #9
 8004376:	0412      	lsls	r2, r2, #16
 8004378:	3f7f      	subs	r7, #127	@ 0x7f
 800437a:	4313      	orrs	r3, r2
 800437c:	07c9      	lsls	r1, r1, #31
 800437e:	d400      	bmi.n	8004382 <__ieee754_sqrtf+0x5a>
 8004380:	005b      	lsls	r3, r3, #1
 8004382:	2400      	movs	r4, #0
 8004384:	2180      	movs	r1, #128	@ 0x80
 8004386:	2019      	movs	r0, #25
 8004388:	0026      	movs	r6, r4
 800438a:	107f      	asrs	r7, r7, #1
 800438c:	005b      	lsls	r3, r3, #1
 800438e:	0449      	lsls	r1, r1, #17
 8004390:	1875      	adds	r5, r6, r1
 8004392:	001a      	movs	r2, r3
 8004394:	429d      	cmp	r5, r3
 8004396:	dc02      	bgt.n	800439e <__ieee754_sqrtf+0x76>
 8004398:	186e      	adds	r6, r5, r1
 800439a:	1b5a      	subs	r2, r3, r5
 800439c:	1864      	adds	r4, r4, r1
 800439e:	3801      	subs	r0, #1
 80043a0:	0053      	lsls	r3, r2, #1
 80043a2:	0849      	lsrs	r1, r1, #1
 80043a4:	2800      	cmp	r0, #0
 80043a6:	d1f3      	bne.n	8004390 <__ieee754_sqrtf+0x68>
 80043a8:	2a00      	cmp	r2, #0
 80043aa:	d019      	beq.n	80043e0 <__ieee754_sqrtf+0xb8>
 80043ac:	4d16      	ldr	r5, [pc, #88]	@ (8004408 <__ieee754_sqrtf+0xe0>)
 80043ae:	4e17      	ldr	r6, [pc, #92]	@ (800440c <__ieee754_sqrtf+0xe4>)
 80043b0:	6828      	ldr	r0, [r5, #0]
 80043b2:	6831      	ldr	r1, [r6, #0]
 80043b4:	682b      	ldr	r3, [r5, #0]
 80043b6:	9301      	str	r3, [sp, #4]
 80043b8:	f7fc fda4 	bl	8000f04 <__aeabi_fsub>
 80043bc:	1c01      	adds	r1, r0, #0
 80043be:	9801      	ldr	r0, [sp, #4]
 80043c0:	f7fc f83a 	bl	8000438 <__aeabi_fcmple>
 80043c4:	2800      	cmp	r0, #0
 80043c6:	d00b      	beq.n	80043e0 <__ieee754_sqrtf+0xb8>
 80043c8:	6828      	ldr	r0, [r5, #0]
 80043ca:	6831      	ldr	r1, [r6, #0]
 80043cc:	f7fc f880 	bl	80004d0 <__aeabi_fadd>
 80043d0:	682d      	ldr	r5, [r5, #0]
 80043d2:	1c01      	adds	r1, r0, #0
 80043d4:	1c28      	adds	r0, r5, #0
 80043d6:	f7fc f825 	bl	8000424 <__aeabi_fcmplt>
 80043da:	2800      	cmp	r0, #0
 80043dc:	d010      	beq.n	8004400 <__ieee754_sqrtf+0xd8>
 80043de:	3402      	adds	r4, #2
 80043e0:	23fc      	movs	r3, #252	@ 0xfc
 80043e2:	1064      	asrs	r4, r4, #1
 80043e4:	059b      	lsls	r3, r3, #22
 80043e6:	18e3      	adds	r3, r4, r3
 80043e8:	05fc      	lsls	r4, r7, #23
 80043ea:	18e4      	adds	r4, r4, r3
 80043ec:	e7ad      	b.n	800434a <__ieee754_sqrtf+0x22>
 80043ee:	2080      	movs	r0, #128	@ 0x80
 80043f0:	0400      	lsls	r0, r0, #16
 80043f2:	005b      	lsls	r3, r3, #1
 80043f4:	0011      	movs	r1, r2
 80043f6:	3201      	adds	r2, #1
 80043f8:	4203      	tst	r3, r0
 80043fa:	d0fa      	beq.n	80043f2 <__ieee754_sqrtf+0xca>
 80043fc:	4249      	negs	r1, r1
 80043fe:	e7b6      	b.n	800436e <__ieee754_sqrtf+0x46>
 8004400:	2301      	movs	r3, #1
 8004402:	3401      	adds	r4, #1
 8004404:	439c      	bics	r4, r3
 8004406:	e7eb      	b.n	80043e0 <__ieee754_sqrtf+0xb8>
 8004408:	08004504 	.word	0x08004504
 800440c:	08004500 	.word	0x08004500

08004410 <_init>:
 8004410:	b5f8      	push	{r3, r4, r5, r6, r7, lr}
 8004412:	46c0      	nop			@ (mov r8, r8)
 8004414:	bcf8      	pop	{r3, r4, r5, r6, r7}
 8004416:	bc08      	pop	{r3}
 8004418:	469e      	mov	lr, r3
 800441a:	4770      	bx	lr

0800441c <_fini>:
 800441c:	b5f8      	push	{r3, r4, r5, r6, r7, lr}
 800441e:	46c0      	nop			@ (mov r8, r8)
 8004420:	bcf8      	pop	{r3, r4, r5, r6, r7}
 8004422:	bc08      	pop	{r3}
 8004424:	469e      	mov	lr, r3
 8004426:	4770      	bx	lr
